0001   0000             ;
0002   0000             ;==================================================================================================
0003   0000             ;   SCSI2IDE
0004   0000             ;   WAYNE WARTHEN - 2013-01-24
0005   0000             ;==================================================================================================
0006   0000             ;
0007   0000             ; WILL BOOT TO ZAPPLE PROMPT.
0008   0000             ; USE ZAPPLE 'G' (GO) COMMAND TO START FUNCTIONS:
0009   0000             ;   G1000 = SCSI TARGET MODE PROCESSOR (PRESS A KEY TO EXIT)
0010   0000             ;   G1010 = ZERO FIRST 256 BLOCKS OF IDE DEVICE
0011   0000             ;   G1020 = READ BLOCK OF STORAGE INTO BUFFER
0012   0000             ;   G1030 = WRITE BLOCK OF STORAGE FROM BUFFER
0013   0000             ;   G1040 = DUMP CURRENT STORAGE BUFFER
0014   0000             ;
0015   0000             ; NOTES:
0016   0000             ;   1) TARGET MODE OPERATION ONLY
0017   0000             ;   2) INTENT IS SCSI-1/2 PROTOCOL & COMPLIANT WITH SASI
0018   0000             ;
0019   0000             ; TODO:
0020   0000             ;   X) SET PHASE SIGNALS FIRST, THEN START DRIVING DATA, BUT PRIOR TO LOOPING
0021   0000             ;   X) BE SURE TO STOP DRIVING DATA BEFORE DROPPING I/O
0022   0000             ;   X) MAINTAIN SENSE BYTE DYNAMICALLY AND RETURN PROPER VALUE
0023   0000             ;   X) CHECK FOR ATN AT START OF ANY PHASE
0024   0000             ;   X) SEND CHECK CONDITION (SENSE CODE ILLEGAL REQUEST) FOR INVALID LUN FOR ALL COMMANDS, BUT:
0025   0000             ;      A) IF COMMAND IS REQUEST SENSE, RETURN CURRENT SENSE BYTE
0026   0000             ;      B) IF COMMAND IS INQUIRY, RETURN WITH FIRST BYTE=$7F
0027   0000             ;   6) MAINTAIN LUN-SPECIFIC SENSE CODES (NO DISCONNECT, SO MAY NOT BE NEEDED)
0028   0000             ;   X) IMPLEMENT PSEUDO-DMA
0029   0000             ;   X) IMPLEMENT CHIP-BASED TARGET SELECTION
0030   0000             ;   X) DETECT BUS RESET VIA INTERRUPT
0031   0000             ;   X) SUPPORT MULTIPLE LUNS
0032   0000             ;   X) CONTROL DEBUG TRACING VIA CONDITIONAL
0033   0000             ;   XX) REFACTOR PPIDE READ/WRITE FOR PERFORMANCE
0034   0000             ;   XX) ENSURE DELAYS ARE CORRECT (CABLE DESKEW AND BUS SETTLE)
0035   0000             ;   XX) RESPECT BOARD CONFIG SWITCH SETTINGS
0036   0000             ;   XX) AUTOSTART TARGET MODE COMMAND PROCESSOR
0037   0000             ;   XX) IMPLEMENT FORMAT COMMAND
0038   0000             ;   XX) IMPLEMENT VERIFY COMMAND
0039   0000             ;   XX) DETECT DRIVE READ/WRITE ERRORS AND PROPAGATE TO SCSI RESPONSE
0040   0000             ;   XX) OPTIMIZE READ/WRITE LOOPS WITH Z80 INI/OUTI
0041   0000             ;   18) IMPLEMENT PASS-THRU MODE WHERE FULL IDE/SD DEVICE IS PRESENTED AS A SINGLE LUN
0042   0000             ;   XX) FIX DISK BUFFER ADDRESS
0043   0000             ;
0044   0000             ;==================================================================================================
0045   0000             ;   CONFIGURATION BYTE DEFINITION
0046   0000             ;==================================================================================================
0047   0000             ; +-----------------+
0048   0000             ; | 7 6 5 4 3 2 1 0 | JUMPER BLOCK P1
0049   0000             ; +-----------------+
0050   0000             ;
0051   0000             ;     P1
0052   0000             ;    +---+
0053   0000             ;  0 | D | --\ 
0054   0000             ;  1 | D |    +-- SCSI DEVICE ID (0-7)
0055   0000             ;  2 | D | --/
0056   0000             ;  3 | B | ------ BLOCK SIZE (0=512, 1=256)
0057   0000             ;  4 | X | ------ UNUSED
0058   0000             ;  5 | W | ------ WP (0=OFF, 1=ON)
0059   0000             ;  6 | G | ------ DEBUG (0=OFF, 1=ON)
0060   0000             ;  7 | T | ------ STORAGE DEVICE (0=IDE, 1=SD)
0061   0000             ;    +---+
0062   0000             ;
0063   0000             ; NOTE THAT BIT 4 WAS DEDICATED TO DRQ IN THE SECOND RUN OF THE PROTOTYPE BOARDS AND IS
0064   0000             ; NOT AVAILABLE FOR THIS BOARD VARIANT.
0065   0000             ;
0066   0000             ;==================================================================================================
0067   0000             ;   MEMORY MAP
0068   0000             ;==================================================================================================
0069   0000             ;
0070   0000             ; STANDARD Z80 ADDRESS SPACE IS 64K
0071   0000             ; BOTTOM HALF (32K) MAPPED TO ROM, TOP HALF MAPPED TO RAM
0072   0000             ;
0073   0000             ; ROM - $0000-$7FFF (LOWER 32K)
0074   0000             ; -----------------------------
0075   0000             ; $0000-$00FF	Z80 PAGE ZERO
0076   0000             ; $0100-$0FFF	SYSTEM INITIALIZATION
0077   0000             ; $1000-$5FFF	SCSI CONTROL PROGRAM
0078   0000             ; $6000-$6FFF	ZAPPLE MONITOR
0079   0000             ; $7000-$7FFF	HBIOS (RELOCATED TO $F000-$FFFF AT STARTUP)
0080   0000             ;
0081   0000             ; RAM - $8000-$FFFF (UPPER 32K)
0082   0000             ; -----------------------------
0083   0000             ; $8000-$EDFF	WORKING DATA STORAGE FOR SCSI CONTROL PROGRAM
0084   0000             ; $EE00-$EFFF	ZAPPLE MONITOR WORKING DATA STORAGE
0085   0000             ; $F000-$FFFF	HBIOS (RUNS HERE, CODE AND DATA, STACK SPACE AT TOP)
0086   0000             ;
0087   0000             ;==================================================================================================
0088   0000             ;   PORT DEFINITIONS
0089   0000             ;==================================================================================================
0090   0000             ;
0091   0000             ; I/O BASE NORMALLY 0x80
0092   0000             ;
0093   0000             ; ---------------------------------
0094   0000             ; SCSI CONTROLLER (I/0 BASE + 0x08)
0095   0000             ; ---------------------------------
0096   0000             ; PORT	READ				WRITE
0097   0000             ; ----	------------------------------ 	------------------------------
0098   0000             ; 0x88  CURRENT SCSI DATA		OUTPUT DATA REGISTER
0099   0000             ; 0x89	INITIATOR COMMAND REGISTER	INITIATOR COMMAND REGISTER
0100   0000             ; 0x8A	MODE REGISTER			MODE REGISTER
0101   0000             ; 0x8B	TARGET COMMAND REGISTER		TARGET COMMAND REGISTER
0102   0000             ; 0x8C	CURRENT SCSI BUS STATUS		SELECT ENABLE REGISTER
0103   0000             ; 0x8D  BUS & STATUS REGISTER		START DMA SEND
0104   0000             ; 0x8E	INPUT DATA REGISTER		START DMA TARGET RECEIVE
0105   0000             ; 0x8F	RESET PARITY/INTERRUPT		START DMA INITIATOR RECEIVE
0106   0000             ;
0107   0000             ; -----------------------------------------------
0108   0000             ; PARALLEL PORT (IDE) INTERFACE (I/O BASE + 0x00)
0109   0000             ; -----------------------------------------------
0110   0000             ; PORT	PPI				IDE
0111   0000             ; ----	------------------------------ 	------------------------------
0112   0000             ; 0x80  PORT A				LSB
0113   0000             ; 0x81  PORT B				MSB
0114   0000             ; 0x82  PORT C				IDE CONTROL
0115   0000             ; 0x83  CONTROL
0116   0000             ;
0117   0000             ; -----------------------------------------------
0118   0000             ; CONFIG JUMPER P1 (I/O BASE + 0x04)
0119   0000             ; -----------------------------------------------
0120   0000             ; BIT(S)	DEFINITION
0121   0000             ; ------	------------------------------------------------------
0122   0000             ; 0-2		SCSI BUS DEVICE ID
0123   0000             ; 3		BLOCK SIZE (0=512, 1=256)
0124   0000             ; 4		DEBUG (0=OFF, 1=ON)
0125   0000             ; 5-6		WP (WHAT IS THIS?)
0126   0000             ; 7		STORAGE DEVICE (0=IDE, 1=SD)
0127   0000             ;
0128   0000             ; -----------------------------------------------
0129   0000             ; SERIAL PORT INTERFACE (I/O BASE + 0x10)
0130   0000             ; -----------------------------------------------
0131   0000             ; PORT	READ W/ DLAB=0			WRITE W/ DLAB=0			READ/WRITE W/ DLAB=1	
0132   0000             ; ----	------------------------------ 	------------------------------ 	------------------------------
0133   0000             ; 0x90	RECEIVE BUFFER REGISTER		TRANSMIT HOLDING REGISTER	DIVISOR LATCH (LSB)
0134   0000             ; 0x91	INTERRUPT ENABLE REGISTER	INTERRUPT ENABLE REGISTER	DIVISOR LATCH (MSB)
0135   0000             ; 0x92	INTERRUPT IDENT REGISTER	FIFO CONTROL			N/A
0136   0000             ; 0x93	LINE CONTROL REGISTER		LINE CONTROL REGISTER		N/A
0137   0000             ; 0x94	MODEM CONTROL REGISTER		MODEM CONTROL REGISTER		N/A
0138   0000             ; 0x95	LINE STATUS REGISTER		LINE STATUS REGISTER		N/A
0139   0000             ; 0x96	MODEM STATUS REGISTER		MODEM STATUS REGISTER		N/A
0140   0000             ; 0x97  SCRATCH REGISTER		SCRATCH REGISTER		N/A
0141   0000             ;
0142   0000             ;==================================================================================================
0143   0000             ;   DEFINITIONS
0144   0000             ;==================================================================================================
0145   0000             ;
0146   0000             #INCLUDE "std.asm"
0001+  0000             ; ~/RomWBW/branches/s100/Source/std.asm 1/19/2013 dwg - 
0002+  0000             ;
0003+  0000             
0004+  0000             ; The purpose of this file is to define generic symbols and to include
0005+  0000             ; the appropriate std-*.inc file to bring in platform specifics.
0006+  0000             
0007+  0000             ; There are four classes of systems supported by N8VEM.
0008+  0000             ; 1. N8VEM 	Platforms that include ECB interface
0009+  0000             ; 2. ZETA	Genrally N8VEM-like, but no ECB
0010+  0000             ; 3. N8		Generally N8VEM-like bt 180 and extra embedded devices
0011+  0000             ; 4. S100	Assumes Z80 Master CPU Card
0012+  0000             
0013+  0000             ; All the classes require certain generic definitions, and these are
0014+  0000             ; defined here prior to the inclusion of platform specific .inc files.
0015+  0000             
0016+  0000             ; It is unfortunate, but all the possible config items must be defined
0017+  0000             ; here because the config gets read before the specific std-*.inc's
0018+  0000             
0019+  0000             ;;;;;;;;;;;;;;;;;;;;;;;;;;;;;;;;;;;;;;;;;;;;;;;;;;;;;;;;;;;;;;;;;;;;;;;
0020+  0000             ;
0021+  0000             TRUE		.EQU 	1
0022+  0000             FALSE		.EQU 	0
0023+  0000             ;
0024+  0000             ; DEPRECATED STUFF!!!
0025+  0000             ;
0026+  0000             DIOPLT		.EQU	0		; DEPRECATED!!!
0027+  0000             VDUMODE		.EQU	0		; DEPRECATED!!!
0028+  0000             BIOSSIZE	.EQU	0100H		; DEPRECATED!!!
0029+  0000             ;
0030+  0000             ; PRIMARY HARDWARE PLATFORMS
0031+  0000             ;
0032+  0000             PLT_N8VEM	.EQU	1		; N8VEM ECB Z80 SBC
0033+  0000             PLT_ZETA	.EQU	2		; ZETA Z80 SBC
0034+  0000             PLT_N8		.EQU	3		; N8 (HOME COMPUTER) Z180 SBC
0035+  0000             PLT_S2I		.EQU	4		; SCSI2IDE
0036+  0000             PLT_S100	.EQU	5		; S100COMPUTERS Z80 based system
0037+  0000             ;
0038+  0000             ; BOOT STYLE
0039+  0000             ;
0040+  0000             BT_MENU		.EQU	1	; WAIT FOR MENU SELECTION AT LOADER PROMPT
0041+  0000             BT_AUTO		.EQU	2	; AUTO SELECT BOOT_DEFAULT AFTER BOOT_TIMEOUT
0042+  0000             ;
0043+  0000             ; RAM DISK INITIALIZATION OPTIONS
0044+  0000             ;
0045+  0000             CLR_NEVER	.EQU	0		; NEVER CLEAR RAM DISK
0046+  0000             CLR_AUTO	.EQU	1		; CLEAR RAM DISK IF INVALID DIR ENTRIES
0047+  0000             CLR_ALWAYS	.EQU	2		; ALWAYS CLEAR RAM DISK
0048+  0000             ;
0049+  0000             ; DISK MAP SELECTION OPTIONS
0050+  0000             ;
0051+  0000             DM_ROM		.EQU	1		; ROM DRIVE PRIORITY
0052+  0000             DM_RAM		.EQU	2		; RAM DRIVE PRIORITY
0053+  0000             DM_FD		.EQU	3		; FLOPPY DRIVE PRIORITY
0054+  0000             DM_IDE		.EQU	4		; IDE DRIVE PRIORITY
0055+  0000             DM_PPIDE	.EQU	5		; PPIDE DRIVE PRIORITY
0056+  0000             DM_SD		.EQU	6		; SD DRIVE PRIORITY
0057+  0000             DM_PRPSD	.EQU	7		; PROPIO SD DRIVE PRIORITY
0058+  0000             DM_PPPSD	.EQU	8		; PROPIO SD DRIVE PRIORITY
0059+  0000             DM_HDSK		.EQU	9		; SIMH HARD DISK DRIVE PRIORITY
0060+  0000             ;
0061+  0000             ; FLOPPY DISK MEDIA SELECTIONS (ID'S MUST BE INDEX OF ENTRY IN FCD_TBL)
0062+  0000             ;
0063+  0000             FDM720		.EQU	0		; 3.5" FLOPPY, 720KB, 2 SIDES, 80 TRKS, 9 SECTORS
0064+  0000             FDM144		.EQU	1		; 3.5" FLOPPY, 1.44MB, 2 SIDES, 80 TRKS, 18 SECTORS
0065+  0000             FDM360		.EQU	2		; 5.25" FLOPPY, 360KB, 2 SIDES, 40 TRKS, 9 SECTORS
0066+  0000             FDM120		.EQU	3		; 5.25" FLOPPY, 1.2MB, 2 SIDES, 80 TRKS, 15 SECTORS
0067+  0000             FDM111		.EQU	4		; 8" FLOPPY, 1.11MB, 2 SIDES, 74 TRKS, 15 SECTORS
0068+  0000             ;
0069+  0000             ; MEDIA ID VALUES
0070+  0000             ;
0071+  0000             MID_NONE	.EQU	0
0072+  0000             MID_MDROM	.EQU	1
0073+  0000             MID_MDRAM	.EQU	2
0074+  0000             MID_HD		.EQU	3
0075+  0000             MID_FD720	.EQU	4
0076+  0000             MID_FD144	.EQU	5
0077+  0000             MID_FD360	.EQU	6
0078+  0000             MID_FD120	.EQU	7
0079+  0000             MID_FD111	.EQU	8
0080+  0000             ;
0081+  0000             ; FD MODE SELECTIONS
0082+  0000             ;
0083+  0000             FDMODE_NONE	.equ	0		; FD modes defined in std-*.inc
0084+  0000             FDMODE_DIO	.EQU	1		; DISKIO V1
0085+  0000             FDMODE_ZETA	.EQU	2		; ZETA
0086+  0000             FDMODE_DIDE	.EQU	3		; DUAL IDE
0087+  0000             FDMODE_N8	.EQU	4		; N8
0088+  0000             FDMODE_DIO3	.EQU	5		; DISKIO V3
0089+  0000             ;
0090+  0000             ; IDE MODE SELECTIONS
0091+  0000             ;
0092+  0000             IDEMODE_NONE	.EQU	0
0093+  0000             IDEMODE_DIO	.EQU	1		; DISKIO V1
0094+  0000             IDEMODE_DIDE	.EQU	2		; DUAL IDE
0095+  0000             ;
0096+  0000             ; PPIDE MODE SELECTIONS
0097+  0000             ;
0098+  0000             PPIDEMODE_NONE	.EQU	0
0099+  0000             PPIDEMODE_STD	.EQU	1		; STANDARD N8VEM PARALLEL PORT
0100+  0000             PPIDEMODE_DIO3	.EQU	2		; DISKIO V3 PARALLEL PORT
0101+  0000             ;
0102+  0000             ; SD MODE SELECTIONS
0103+  0000             ;
0104+  0000             SDMODE_NONE	.EQU	0
0105+  0000             SDMODE_JUHA	.EQU	1		; JUHA MINI BOARD
0106+  0000             SDMODE_N8	.EQU	2		; N8-2511, UNMODIFIED
0107+  0000             SDMODE_CSIO	.EQU	3		; N8-2312 OR N8-2511 MODIFIED
0108+  0000             SDMODE_PPI	.EQU	4		; PPISD MINI BOARD
0109+  0000             SDMODE_UART	.EQU	5		; S2ISD
0110+  0000             SDMODE_DSD	.EQU	6		; DUAL SD
0111+  0000             SDMODE_MK4	.EQU	7		; MARK IV
0112+  0000             ;
0113+  0000             ; CONSOLE TERMINAL TYPE CHOICES
0114+  0000             ;
0115+  0000             TERM_TTY	.EQU	0
0116+  0000             TERM_ANSI	.EQU	1
0117+  0000             TERM_WYSE	.EQU	2
0118+  0000             TERM_VT52	.EQU	3
0119+  0000             ;
0120+  0000             ; EMULATION TYPES
0121+  0000             ;
0122+  0000             EMUTYP_NONE	.EQU	0
0123+  0000             EMUTYP_TTY	.EQU	1
0124+  0000             EMUTYP_ANSI	.EQU	2
0125+  0000             ;
0126+  0000             ; SCSI DEVICE PERSONALITY CHOICES
0127+  0000             ;
0128+  0000             S2I_PER_N8VEM	.EQU	1
0129+  0000             S2I_PER_ST125N	.EQU	2
0130+  0000             ;
0131+  0000             ; SYSTEM GENERATION SETTINGS
0132+  0000             ;
0133+  0000             SYS_CPM		.EQU	1		; CPM (IMPLIES BDOS + CCP)
0134+  0000             SYS_ZSYS	.EQU	2		; ZSYSTEM OS (IMPLIES ZSDOS + ZCPR)
0135+  0000             ;
0136+  0000             DOS_BDOS	.EQU	1		; BDOS
0137+  0000             DOS_ZDDOS	.EQU	2		; ZDDOS VARIANT OF ZSDOS
0138+  0000             DOS_ZSDOS	.EQU	3		; ZSDOS
0139+  0000             ;
0140+  0000             CP_CCP		.EQU	1		; CCP COMMAND PROCESSOR
0141+  0000             CP_ZCPR		.EQU	2		; ZCPR COMMAND PROCESSOR
0142+  0000             ;
0143+  0000             ; CONFIGURE DOS (DOS) AND COMMAND PROCESSOR (CP) BASED ON SYSTEM SETTING (SYS)
0144+  0000             ;
0145+  0000             #IFNDEF BLD_SYS
0146+  0000             SYS		.EQU	SYS_CPM
0147+  0000~            #ELSE
0148+  0000~            SYS		.EQU	BLD_SYS
0149+  0000             #ENDIF
0150+  0000             ;
0151+  0000             #IF (SYS == SYS_CPM)
0152+  0000             DOS		.EQU	DOS_BDOS
0153+  0000             CP		.EQU	CP_CCP
0154+  0000             #DEFINE		OSLBL	"CP/M-80 2.2"
0155+  0000             #ENDIF
0156+  0000             ;
0157+  0000~            #IF (SYS == SYS_ZSYS)
0158+  0000~            DOS		.EQU	DOS_ZSDOS
0159+  0000~            CP		.EQU	CP_ZCPR
0160+  0000~            #DEFINE		OSLBL	"ZSDOS 1.1"
0161+  0000             #ENDIF
0162+  0000             ;
0163+  0000             ; INCLUDE VERSION AND BUILD SETTINGS
0164+  0000             ;
0165+  0000             #INCLUDE "ver.inc"			; ADD BIOSVER
0001++ 0000             #DEFINE	RMJ	2
0002++ 0000             #DEFINE	RMN	2
0003++ 0000             #DEFINE	RUP	0
0004++ 0000             #DEFINE	RTP	3
0005++ 0000             #DEFINE BIOSVER	"2.2 B3"
0006++ 0000             #DEFINE REVISION 1741
0166+  0000             ;
0167+  0000             #INCLUDE "build.inc"			; INCLUDE USER CONFIG, ADD VARIANT, TIMESTAMP, & ROMSIZE
0001++ 0000             ; RomWBW Configured for S2I 1gx2, 04/02/2021 19:23:08
0002++ 0000             ;
0003++ 0000             #DEFINE		TIMESTAMP	"210402T0723"
0004++ 0000             #DEFINE		VARIANT		"S2I-Wayne"
0005++ 0000             ;
0006++ 0000             ROMSIZE		.EQU		32		; SIZE OF ROM IN KB
0007++ 0000             PLATFORM	.EQU		PLT_S2I		; HARDWARE PLATFORM
0008++ 0000             ;
0009++ 0000             ; INCLUDE PLATFORM SPECIFIC DEVICE DEFINITIONS
0010++ 0000             ;
0011++ 0000~            #IF (PLATFORM == PLT_S100)
0012++ 0000~              #INCLUDE "std-s100.inc"
0013++ 0000             #ELSE
0014++ 0000               #INCLUDE "std-n8vem.inc"
0001+++0000             ;
0002+++0000             ; CHARACTER DEVICES
0003+++0000             ;
0004+++0000             CIODEV_UART	.EQU	$00
0005+++0000             CIODEV_ASCI	.EQU	$10
0006+++0000             CIODEV_VDU	.EQU	$20
0007+++0000             CIODEV_CVDU	.EQU	$30
0008+++0000             CIODEV_UPD7220	.EQU	$40
0009+++0000             CIODEV_N8V	.EQU	$50
0010+++0000             CIODEV_PRPCON	.EQU	$60
0011+++0000             CIODEV_PPPCON	.EQU	$70
0012+++0000             CIODEV_CRT	.EQU	$D0
0013+++0000             CIODEV_BAT	.EQU	$E0
0014+++0000             CIODEV_NUL	.EQU	$F0
0015+++0000             ;
0016+++0000             ; DISK DEVICES (ONLY FIRST NIBBLE RELEVANT, SECOND NIBBLE RESERVED FOR UNIT)
0017+++0000             ;
0018+++0000             DIODEV_MD	.EQU	$00
0019+++0000             DIODEV_FD	.EQU	$10
0020+++0000             DIODEV_IDE	.EQU	$20
0021+++0000             DIODEV_ATAPI	.EQU	$30
0022+++0000             DIODEV_PPIDE	.EQU	$40
0023+++0000             DIODEV_SD	.EQU	$50
0024+++0000             DIODEV_PRPSD	.EQU	$60
0025+++0000             DIODEV_PPPSD	.EQU	$70
0026+++0000             DIODEV_HDSK	.EQU	$80
0027+++0000             ;
0028+++0000             ; VDA DEVICES (VIDEO DISPLAY ADAPTER)
0029+++0000             ;
0030+++0000             VDADEV_NONE	.EQU	$00		; NO VDA DEVICE
0031+++0000             VDADEV_VDU	.EQU	$10		; ECB VDU - 6545 CHIP
0032+++0000             VDADEV_CVDU	.EQU	$20		; ECB COLOR VDU - 8563 CHIP (NOT IMP)
0033+++0000             VDADEV_UPD7220	.EQU	$30		; ECB uP7220 (NOT IMPLEMENTED)
0034+++0000             VDADEV_N8V	.EQU	$40		; N8 ONBOARD VDA SUBSYSTEM
0015++ 0000             #ENDIF
0016++ 0000             ;
0017++ 0000             #INCLUDE "config_S2I_1gx2.asm"
0001+++0000             ;
0002+++0000             ;==================================================================================================
0003+++0000             ;   ROMWBW 2.X CONFIGURATION FOR SCSI2IDE 11/26/2012
0004+++0000             ;==================================================================================================
0005+++0000             ;
0006+++0000             ; BUILD CONFIGURATION OPTIONS
0007+++0000             ;
0008+++0000             CPUFREQ		.EQU	8		; IN MHZ, USED TO COMPUTE DELAY FACTORS
0009+++0000             RAMSIZE		.EQU	32		; SIZE OF RAM IN KB, MUST MATCH YOUR HARDWARE!!!
0010+++0000             ;
0011+++0000             DEFCON		.EQU	CIODEV_UART	; DEFAULT CONSOLE DEVICE (LOADER AND MONITOR): CIODEV_UART, CIODEV_VDU, DIODEV_PRPCON
0012+++0000             ;
0013+++0000             BAUDRATE	.EQU	38400		; IN BPS: 1200, 9600, 38400, ..., 115200
0014+++0000             ;
0015+++0000             S2I_TRACE	.EQU	2		; 0=SILENT, 1=ERRORS, 2=EVERYTHING (DEBUG)
0016+++0000             S2I_PER		.EQU	S2I_PER_N8VEM	; PERSONALITY (N8VEM, ST125N)
0017+++0000             S2I_PDMA	.EQU	TRUE		; PSEUDO DMA (TRUE, FALSE)
0018+++0000             S2I_LUNCNT	.EQU	2		; NUMBER OF LUNS (1-7)
0019+++0000             S2I_LUNSIZ	.EQU	1024		; SIZE OF EACH LUN (IN MB)
0020+++0000             ;
0021+++0000             UARTENABLE	.EQU	TRUE		; TRUE FOR UART SUPPORT (ALMOST ALWAYS WANT THIS TO BE TRUE)
0022+++0000             UARTFIFO	.EQU	TRUE		; TRUE ENABLES UART FIFO (16550 ASSUMED, N8VEM AND ZETA ONLY)
0023+++0000             UARTAFC		.EQU	FALSE		; TRUE ENABLES AUTO FLOW CONTROL (YOUR TERMINAL/UART MUST SUPPORT RTS/CTS FLOW CONTROL!!!)
0024+++0000             ;
0025+++0000             PPIDEENABLE	.EQU	TRUE		; TRUE FOR PPIDE SUPPORT (DO NOT COMBINE WITH DSKYENABLE)
0026+++0000             PPIDEIOB	.EQU	$80		; PPIDE IOBASE
0027+++0000             PPIDETRACE	.EQU	1		; 0=SILENT, 1=ERRORS, 2=EVERYTHING (ONLY RELEVANT IF PPIDEENABLE = TRUE)
0028+++0000             PPIDE8BIT	.EQU	FALSE		; USE IDE 8BIT TRANSFERS (PROBABLY ONLY WORKS FOR CF CARDS!)
0029+++0000             PPIDECAPACITY	.EQU	64		; CAPACITY OF DEVICE (IN MB)
0030+++0000             PPIDESLOW	.EQU	FALSE		; ADD DELAYS TO HELP PROBLEMATIC HARDWARE (TRY THIS IF PPIDE IS UNRELIABLE)
0031+++0000             ;
0032+++0000             DSKYENABLE	.EQU	FALSE		; TRUE FOR DSKY SUPPORT (DO NOT COMBINE WITH PPIDE)
0033+++0000             ;
0034+++0000             SDENABLE	.EQU	TRUE		; TRUE FOR SD SUPPORT
0035+++0000             SDMODE		.EQU	SDMODE_UART	; SDMODE_JUHA, SDMODE_CSIO, SDMODE_UART, SDMODE_PPI, SDMODE_DSD
0036+++0000             SDTRACE		.EQU	1		; 0=SILENT, 1=ERRORS, 2=EVERYTHING (ONLY RELEVANT IF IDEENABLE = TRUE)
0037+++0000             SDCAPACITY	.EQU	64		; CAPACITY OF DEVICE (IN MB)
0038+++0000             SDCSIOFAST	.EQU	FALSE		; TABLE-DRIVEN BIT INVERTER
0039+++0000             ;
0040+++0000             VDUENABLE	.EQU	FALSE		; TRUE FOR VDU BOARD SUPPORT
0041+++0000             CVDUENABLE	.EQU	FALSE		; TRUE FOR CVDU BOARD SUPPORT
0042+++0000             UPD7220ENABLE	.EQU	FALSE		; TRUE FOR uPD7220 BOARD SUPPORT
0043+++0000             N8VENABLE	.EQU	FALSE		; TRUE FOR N8 (TMS9918) VIDEO/KBD SUPPORT
0044+++0000             FDENABLE	.EQU	FALSE		; TRUE FOR FLOPPY SUPPORT
0045+++0000             IDEENABLE	.EQU	FALSE		; TRUE FOR IDE SUPPORT
0046+++0000             PRPENABLE	.EQU	FALSE		; TRUE FOR PROPIO SD SUPPORT (FOR N8VEM PROPIO ONLY!)
0047+++0000             PPPENABLE	.EQU	FALSE		; TRUE FOR PARPORTPROP SUPPORT
0048+++0000             HDSKENABLE	.EQU	FALSE		; TRUE FOR SIMH HDSK SUPPORT
0018++ 0000             ;
0168+  0000             ;
0169+  0000             ; INCLUDE PLATFORM SPECIFIC HARDWARE DEFINITIONS
0170+  0000             ;
0171+  0000~            #IF ((PLATFORM == PLT_N8VEM) | (PLATFORM == PLT_ZETA))
0172+  0000~            #INCLUDE "n8vem.inc"
0173+  0000             #ENDIF
0174+  0000             ;
0175+  0000             #IF (PLATFORM == PLT_S2I)
0176+  0000             #INCLUDE "s2i.inc"
0001++ 0000             ;
0002++ 0000             ; N8VEM HARDWARE IO PORT ADDRESSES AND MEMORY LOCATIONS
0003++ 0000             ;
0004++ 0000             MPCL_RAM	.EQU 	78H		; BASE IO ADDRESS OF RAM MEMORY PAGER CONFIGURATION LATCH
0005++ 0000             MPCL_ROM	.EQU 	7CH		; BASE IO ADDRESS OF ROM MEMORY PAGER CONFIGURATION LATCH
0006++ 0000             RTC		.EQU	70H		; ADDRESS OF RTC LATCH AND INPUT PORT
0007++ 0000             ;
0008++ 0000             ; PPI 82C55 I/O IS DECODED TO PORT 60-67
0009++ 0000             ;
0010++ 0000             PPIBASE		.EQU	80H
0011++ 0000             PPIA		.EQU 	PPIBASE + 0	; PORT A
0012++ 0000             PPIB		.EQU 	PPIBASE + 1	; PORT B
0013++ 0000             PPIC		.EQU 	PPIBASE + 2	; PORT C
0014++ 0000             PPIX	 	.EQU 	PPIBASE + 3	; PPI CONTROL PORT
0015++ 0000             ;
0016++ 0000             ; 16C550 SERIAL LINE UART
0017++ 0000             ;
0018++ 0000             SIO_BASE	.EQU	90H
0019++ 0000             SIO_RBR		.EQU	SIO_BASE + 0	; DLAB=0: RCVR BUFFER REG (READ ONLY)
0020++ 0000             SIO_THR		.EQU	SIO_BASE + 0	; DLAB=0: XMIT HOLDING REG (WRITE ONLY)
0021++ 0000             SIO_IER		.EQU	SIO_BASE + 1	; DLAB=0: INT ENABLE REG
0022++ 0000             SIO_IIR		.EQU	SIO_BASE + 2	; INT IDENT REGISTER (READ ONLY)
0023++ 0000             SIO_FCR		.EQU	SIO_BASE + 2	; FIFO CONTROL REG (WRITE ONLY)
0024++ 0000             SIO_LCR		.EQU	SIO_BASE + 3	; LINE CONTROL REG
0025++ 0000             SIO_MCR		.EQU	SIO_BASE + 4	; MODEM CONTROL REG
0026++ 0000             SIO_LSR		.EQU	SIO_BASE + 5	; LINE STATUS REG
0027++ 0000             SIO_MSR		.EQU	SIO_BASE + 6	; MODEM STATUS REG
0028++ 0000             SIO_SCR		.EQU	SIO_BASE + 7	; SCRATCH REGISTER
0029++ 0000             SIO_DLL		.EQU	SIO_BASE + 0	; DLAB=1: DIVISOR LATCH (LS)
0030++ 0000             SIO_DLM		.EQU	SIO_BASE + 1	; DLAB=1: DIVISOR LATCH (MS)
0177+  0000             #ENDIF
0178+  0000             ;
0179+  0000~            #IF (PLATFORM == PLT_N8)
0180+  0000~            #INCLUDE "n8.inc"
0181+  0000             #ENDIF
0182+  0000             ;
0183+  0000~            #IF (PLATFORM == PLT_S100)
0184+  0000~            ;
0185+  0000~            #DEFINE S100_IOB			; WBW: FORCED ON TO MAKE BUILD WORK!
0186+  0000~            ;
0187+  0000~            #IFDEF S100_CPU
0188+  0000~            #INCLUDE "S100CPU.INC"
0189+  0000~            #ENDIF
0190+  0000~            ;
0191+  0000~            #IFDEF S100_IOB
0192+  0000~            #INCLUDE "S100IOB.INC"
0193+  0000~            #ENDIF
0194+  0000~            ;
0195+  0000~            #IFDEF S100_RRF
0196+  0000~            #INCLUDE "S100RRF.INC"
0197+  0000~            #ENDIF
0198+  0000~            ;
0199+  0000~            #IFDEF S100_DIDE
0200+  0000~            #INCLUDE "S100DIDE.INC"
0201+  0000~            #ENDIF
0202+  0000~            ;
0203+  0000             #ENDIF
0204+  0000             ;
0205+  0000             ; CHARACTER DEVICE FUNCTIONS
0206+  0000             ;
0207+  0000             CF_INIT		.EQU	0
0208+  0000             CF_IN		.EQU	1
0209+  0000             CF_IST		.EQU	2
0210+  0000             CF_OUT		.EQU	3
0211+  0000             CF_OST		.EQU	4
0212+  0000             ;
0213+  0000             ; DISK OPERATIONS
0214+  0000             ;
0215+  0000             DOP_READ	.EQU	0		; READ OPERATION
0216+  0000             DOP_WRITE	.EQU	1		; WRITE OPERATION
0217+  0000             DOP_FORMAT	.EQU	2		; FORMAT OPERATION
0218+  0000             DOP_READID	.EQU	3		; READ ID OPERATION
0219+  0000             ;
0220+  0000             ; DISK DRIVER FUNCTIONS
0221+  0000             ;
0222+  0000             DF_READY	.EQU	1
0223+  0000             DF_SELECT	.EQU	2
0224+  0000             DF_READ		.EQU	3
0225+  0000             DF_WRITE	.EQU	4
0226+  0000             DF_FORMAT	.EQU	5
0227+  0000             ;
0228+  0000             ; BIOS FUNCTIONS
0229+  0000             ;
0230+  0000             BF_CIO		.EQU	$00
0231+  0000             BF_CIOIN	.EQU	BF_CIO + 0	; CHARACTER INPUT
0232+  0000             BF_CIOOUT	.EQU	BF_CIO + 1	; CHARACTER OUTPUT
0233+  0000             BF_CIOIST	.EQU	BF_CIO + 2	; CHARACTER INPUT STATUS
0234+  0000             BF_CIOOST	.EQU	BF_CIO + 3	; CHARACTER OUTPUT STATUS
0235+  0000             BF_CIOCFG	.EQU	BF_CIO + 4	; CHARACTER I/O CONFIG
0236+  0000             ;
0237+  0000             BF_DIO		.EQU	$10
0238+  0000             BF_DIORD	.EQU	BF_DIO + 0	; DISK READ
0239+  0000             BF_DIOWR	.EQU	BF_DIO + 1	; DISK WRITE
0240+  0000             BF_DIOST	.EQU	BF_DIO + 2	; DISK STATUS
0241+  0000             BF_DIOMED	.EQU	BF_DIO + 3	; DISK MEDIA
0242+  0000             BF_DIOID	.EQU	BF_DIO + 4	; DISK IDENTIFY
0243+  0000             BF_DIOGETBUF	.EQU	BF_DIO + 8	; DISK GET BUFFER ADR
0244+  0000             BF_DIOSETBUF	.EQU	BF_DIO + 9	; DISK SET BUFFER ADR
0245+  0000             ;
0246+  0000             BF_RTC		.EQU	$20
0247+  0000             BF_RTCGETTIM	.EQU	BF_RTC + 0	; GET TIME
0248+  0000             BF_RTCSETTIM	.EQU	BF_RTC + 1	; SET TIME
0249+  0000             BF_RTCGETBYT	.EQU	BF_RTC + 2	; GET NVRAM BYTE BY INDEX
0250+  0000             BF_RTCSETBYT	.EQU	BF_RTC + 3	; SET NVRAM BYTE BY INDEX
0251+  0000             BF_RTCGETBLK	.EQU	BF_RTC + 4	; GET NVRAM DATA BLOCK
0252+  0000             BF_RTCSETBLK	.EQU	BF_RTC + 5	; SET NVRAM DATA BLOCK
0253+  0000             ;
0254+  0000             BF_EMU		.EQU	$30
0255+  0000             BF_EMUIN	.EQU	BF_EMU + 0	; EMULATOR CHARACTER INPUT
0256+  0000             BF_EMUOUT	.EQU	BF_EMU + 1	; EMULATOR CHARACTER OUTPUT
0257+  0000             BF_EMUIST	.EQU	BF_EMU + 2	; EMULATOR CHARACTER INPUT STATUS
0258+  0000             BF_EMUOST	.EQU	BF_EMU + 3	; EMULATOR CHARACTER OUTPUT STATUS
0259+  0000             BF_EMUCFG	.EQU	BF_EMU + 4	; EMULATOR CHARACTER I/O CONFIG
0260+  0000             BF_EMUINI	.EQU	BF_EMU + 8	; INITIALIZE EMULATION
0261+  0000             BF_EMUQRY	.EQU	BF_EMU + 9	; QUERY EMULATION STATUS
0262+  0000             ;
0263+  0000             BF_VDA		.EQU	$40
0264+  0000             BF_VDAINI	.EQU	BF_VDA + 0	; INITIALIZE VDU
0265+  0000             BF_VDAQRY	.EQU	BF_VDA + 1	; QUERY VDU STATUS
0266+  0000             BF_VDARES	.EQU	BF_VDA + 2	; SOFT RESET VDU
0267+  0000             BF_VDASCS	.EQU	BF_VDA + 3	; SET CURSOR STYLE
0268+  0000             BF_VDASCP	.EQU	BF_VDA + 4	; SET CURSOR POSITION
0269+  0000             BF_VDASAT	.EQU	BF_VDA + 5	; SET CHARACTER ATTRIBUTE
0270+  0000             BF_VDASCO	.EQU	BF_VDA + 6	; SET CHARACTER COLOR
0271+  0000             BF_VDAWRC	.EQU	BF_VDA + 7	; WRITE CHARACTER
0272+  0000             BF_VDAFIL	.EQU	BF_VDA + 8	; FILL
0273+  0000             BF_VDASCR	.EQU	BF_VDA + 9	; SCROLL
0274+  0000             BF_VDAKST	.EQU	BF_VDA + 10	; GET KEYBOARD STATUS
0275+  0000             BF_VDAKFL	.EQU	BF_VDA + 11	; FLUSH KEYBOARD BUFFER
0276+  0000             BF_VDAKRD	.EQU	BF_VDA + 12	; READ KEYBOARD
0277+  0000             ;
0278+  0000             BF_SYS		.EQU	$F0
0279+  0000             BF_SYSGETCFG	.EQU	BF_SYS + 0	; GET CONFIGURATION DATA BLOCK
0280+  0000             BF_SYSSETCFG	.EQU	BF_SYS + 1	; SET CONFIGURATION DATA BLOCK
0281+  0000             BF_SYSBNKCPY	.EQU	BF_SYS + 2	; COPY TO/FROM RAM/ROM MEMORY BANK
0282+  0000             BF_SYSGETVER	.EQU	BF_SYS + 3	; GET VERSION OF HBIOS
0283+  0000             ;
0284+  0000             ; MEMORY LAYOUT
0285+  0000             ;
0286+  0000             CPM_LOC		.EQU	0D000H			; CONFIGURABLE: LOCATION OF CPM FOR RUNNING SYSTEM
0287+  0000             CPM_SIZ		.EQU	2F00H			; SIZE OF CPM IMAGE (CCP + BDOS + CBIOS (INCLUDING DATA))
0288+  0000             CPM_END		.EQU	CPM_LOC + CPM_SIZ
0289+  0000             ;
0290+  0000             CCP_LOC		.EQU	CPM_LOC			; START OF COMMAND PROCESSOR
0291+  0000             CCP_SIZ		.EQU	800H
0292+  0000             CCP_END		.EQU	CCP_LOC + CCP_SIZ
0293+  0000             ;
0294+  0000             BDOS_LOC	.EQU	CCP_END			; START OF BDOS
0295+  0000             BDOS_SIZ	.EQU	0E00H
0296+  0000             BDOS_END	.EQU	BDOS_LOC + BDOS_SIZ
0297+  0000             ;
0298+  0000             CBIOS_LOC	.EQU	BDOS_END
0299+  0000             CBIOS_SIZ	.EQU	CPM_END - CBIOS_LOC
0300+  0000             CBIOS_END	.EQU	CBIOS_LOC + CBIOS_SIZ
0301+  0000             ;
0302+  0000             CPM_ENT		.EQU	CBIOS_LOC
0303+  0000             ;
0304+  0000             HB_LOC		.EQU	CPM_END
0305+  0000             HB_SIZ		.EQU	100H
0306+  0000             HB_END		.EQU	HB_LOC + HB_SIZ
0307+  0000             ;
0308+  0000             MON_LOC		.EQU	0C000H			; LOCATION OF MONITOR FOR RUNNING SYSTEM
0309+  0000             MON_SIZ		.EQU	01000H			; SIZE OF MONITOR BINARY IMAGE
0310+  0000             MON_END		.EQU	MON_LOC + MON_SIZ
0311+  0000             MON_DSKY	.EQU	MON_LOC			; MONITOR ENTRY (DSKY)
0312+  0000             MON_UART	.EQU	MON_LOC + 3		; MONITOR ENTRY (UART)
0313+  0000             ;
0314+  0000             CBIOS_BOOT	.EQU	CBIOS_LOC + 0
0315+  0000             CBIOS_WBOOT	.EQU	CBIOS_LOC + 3
0316+  0000             CBIOS_CONST	.EQU	CBIOS_LOC + 6
0317+  0000             CBIOS_CONIN	.EQU	CBIOS_LOC + 9
0318+  0000             CBIOS_CONOUT	.EQU	CBIOS_LOC + 12
0319+  0000             CBIOS_LIST	.EQU	CBIOS_LOC + 15
0320+  0000             CBIOS_PUNCH	.EQU	CBIOS_LOC + 18
0321+  0000             CBIOS_READER	.EQU	CBIOS_LOC + 21
0322+  0000             CBIOS_HOME	.EQU	CBIOS_LOC + 24
0323+  0000             CBIOS_SELDSK	.EQU	CBIOS_LOC + 27
0324+  0000             CBIOS_SETTRK	.EQU	CBIOS_LOC + 30
0325+  0000             CBIOS_SETSEC	.EQU	CBIOS_LOC + 33
0326+  0000             CBIOS_SETDMA	.EQU	CBIOS_LOC + 36
0327+  0000             CBIOS_READ	.EQU	CBIOS_LOC + 39
0328+  0000             CBIOS_WRITE	.EQU	CBIOS_LOC + 42
0329+  0000             CBIOS_LISTST	.EQU	CBIOS_LOC + 45
0330+  0000             CBIOS_SECTRN	.EQU	CBIOS_LOC + 48
0331+  0000             ;
0332+  0000             ; EXTENDED CBIOS FUNCTIONS
0333+  0000             ;
0334+  0000             CBIOS_BNKSEL	.EQU	CBIOS_LOC + 51
0335+  0000             CBIOS_GETDSK	.EQU	CBIOS_LOC + 54
0336+  0000             CBIOS_SETDSK	.EQU	CBIOS_LOC + 57
0337+  0000             CBIOS_GETINFO	.EQU	CBIOS_LOC + 60
0338+  0000             ;
0339+  0000             ; PLACEHOLDERS FOR FUTURE CBIOS EXTENSIONS
0340+  0000             ;
0341+  0000             CBIOS_RSVD1	.EQU	CBIOS_LOC + 63
0342+  0000             CBIOS_RSVD2	.EQU	CBIOS_LOC + 76
0343+  0000             CBIOS_RSVD3	.EQU	CBIOS_LOC + 69
0344+  0000             CBIOS_RSVD4	.EQU	CBIOS_LOC + 72
0345+  0000             ;
0346+  0000             CDISK:	 	.EQU 	00004H		; LOC IN PAGE 0 OF CURRENT DISK NUMBER 0=A,...,15=P
0347+  0000             IOBYTE:	 	.EQU 	00003H		; LOC IN PAGE 0 OF I/O DEFINITION BYTE.
0348+  0000             ;
0349+  0000             ; MEMORY CONFIGURATION
0350+  0000             ;
0351+  0000             MSIZE		.EQU	59		; CP/M VERSION MEMORY SIZE IN KILOBYTES
0352+  0000             ;
0353+  0000             ; "BIAS" IS ADDRESS OFFSET FROM 3400H FOR MEMORY SYSTEMS
0354+  0000             ; THAN 16K (REFERRED TO AS "B" THROUGHOUT THE TEXT) 
0355+  0000             ;
0356+  0000             BIAS:	 	.EQU 	(MSIZE-20)*1024
0357+  0000             CCP:	 	.EQU 	3400H+BIAS	; BASE OF CCP
0358+  0000             BDOS:	 	.EQU 	CCP+806H	; BASE OF BDOS
0359+  0000             BIOS:	 	.EQU 	CCP+1600H	; BASE OF BIOS
0360+  0000             CCPSIZ:		.EQU	00800H
0361+  0000             ;
0362+  0000~            #IF (PLATFORM == PLT_N8VEM)
0363+  0000~              #DEFINE 	PLATFORM_NAME	"N8VEM Z80"
0364+  0000             #ENDIF
0365+  0000~            #IF (PLATFORM == PLT_ZETA)
0366+  0000~              #DEFINE 	PLATFORM_NAME	"ZETA Z80"
0367+  0000             #ENDIF
0368+  0000~            #IF (PLATFORM == PLT_N8)
0369+  0000~              #DEFINE 	PLATFORM_NAME	"N8 Z180"
0370+  0000             #ENDIF
0371+  0000             #IF (PLATFORM == PLT_S2I)
0372+  0000               #DEFINE 	PLATFORM_NAME	"SCSI2IDE Z80"
0373+  0000             #ENDIF
0374+  0000~            #IF (PLATFORM == PLT_S100)
0375+  0000~              #DEFINE	PLATFORM_NAME	"S100"
0376+  0000             #ENDIF
0377+  0000             ;
0378+  0000~            #IF (DSKYENABLE)
0379+  0000~              #DEFINE	DSKYLBL	", DSKY"
0380+  0000             #ELSE
0381+  0000               #DEFINE	DSKYLBL	""
0382+  0000             #ENDIF
0383+  0000             ;
0384+  0000~            #IF (VDUENABLE)
0385+  0000~              #DEFINE	VDULBL	", VDU"
0386+  0000             #ELSE
0387+  0000               #DEFINE	VDULBL	""
0388+  0000             #ENDIF
0389+  0000             ;
0390+  0000~            #IF (CVDUENABLE)
0391+  0000~              #DEFINE	CVDULBL	", CVDU"
0392+  0000             #ELSE
0393+  0000               #DEFINE	CVDULBL	""
0394+  0000             #ENDIF
0395+  0000             ;
0396+  0000~            #IF (UPD7220ENABLE)
0397+  0000~              #DEFINE	UPD7220LBL	", UPD7220"
0398+  0000             #ELSE
0399+  0000               #DEFINE	UPD7220LBL	""
0400+  0000             #ENDIF
0401+  0000             ;
0402+  0000~            #IF (N8VENABLE)
0403+  0000~              #DEFINE	N8VLBL	", N8V"
0404+  0000             #ELSE
0405+  0000               #DEFINE	N8VLBL	""
0406+  0000             #ENDIF
0407+  0000             ;
0408+  0000~            #IF (FDENABLE)
0409+  0000~              #IF (FDMAUTO)
0410+  0000~                  #DEFINE	FDLBL	", FLOPPY (AUTOSIZE)"
0411+  0000~              #ELSE
0412+  0000~                #IF (FDMEDIA == FDM720)
0413+  0000~                  #DEFINE	FDLBL	", FLOPPY (360KB)"
0414+  0000~                #ENDIF
0415+  0000~                #IF (FDMEDIA == FDM111)
0416+  0000~                  #DEFINE	FDLBL	", FLOPPY (1.11MB)"
0417+  0000~                #ENDIF
0418+  0000~              #ENDIF
0419+  0000             #ELSE
0420+  0000               #DEFINE	FDLBL	""
0421+  0000             #ENDIF
0422+  0000             ;
0423+  0000~            #IF (IDEENABLE)
0424+  0000~              #IF (IDEMODE == IDEMODE_DIO)
0425+  0000~                #DEFINE	IDELBL		", IDE (DISKIO)"
0426+  0000~              #ENDIF
0427+  0000~              #IF (IDEMODE == IDEMODE_DIDE)
0428+  0000~                #DEFINE	IDELBL		", IDE (DUAL IDE)"
0429+  0000~              #ENDIF
0430+  0000             #ELSE
0431+  0000               #DEFINE	IDELBL		""
0432+  0000             #ENDIF
0433+  0000             ;
0434+  0000             #IF (PPIDEENABLE)
0435+  0000                 #DEFINE	PPIDELBL	", PPIDE"
0436+  0000~            #ELSE
0437+  0000~              #DEFINE	PPIDELBL	""
0438+  0000             #ENDIF
0439+  0000             ;
0440+  0000             #IF (SDENABLE)
0441+  0000               #DEFINE	SDLBL		", SD CARD"
0442+  0000~            #ELSE
0443+  0000~              #DEFINE	SDLBL		""
0444+  0000             #ENDIF
0445+  0000             ;
0446+  0000~            #IF (IDEENABLE)
0447+  0000~              #DEFINE	IDELBL	", IDE"
0448+  0000             #ELSE
0449+  0000               #DEFINE	IDELBL	""
0450+  0000             #ENDIF
0451+  0000             ;
0452+  0000             #IF (PPIDEENABLE)
0453+  0000               #DEFINE	PPIDELBL	", PPIDE"
0454+  0000~            #ELSE
0455+  0000~              #DEFINE	PPIDELBL	""
0456+  0000             #ENDIF
0457+  0000             
0458+  0000             #IF (SDENABLE)
0459+  0000               #DEFINE	SDLBL		", SD CARD"
0460+  0000~            #ELSE
0461+  0000~              #DEFINE	SDLBL		""
0462+  0000             #ENDIF
0463+  0000             
0464+  0000~            #IF (HDSKENABLE)
0465+  0000~              #DEFINE	HDSKLBL		", SIMH DISK"
0466+  0000             #ELSE
0467+  0000               #DEFINE	HDSKLBL		""
0468+  0000             #ENDIF
0469+  0000             
0470+  0000~            #IF (PRPENABLE)
0471+  0000~              #IF (PRPCONENABLE & PRPSDENABLE)
0472+  0000~                #DEFINE	PRPLBL		", PROPIO (CONSOLE, SD CARD)"
0473+  0000~              #ENDIF
0474+  0000~              #IF (PRPCONENABLE & !PRPSDENABLE)
0475+  0000~                #DEFINE	PRPLBL		", PROPIO (CONSOLE)"
0476+  0000~              #ENDIF
0477+  0000~              #IF (!PRPCONENABLE & PRPSDENABLE)
0478+  0000~                #DEFINE	PRPLBL		", PROPIO (SD CARD)"
0479+  0000~              #ENDIF
0480+  0000~              #IF (!PRPCONENABLE & !PRPSDENABLE)
0481+  0000~                #DEFINE	PRPLBL		", PROPIO ()"
0482+  0000~              #ENDIF
0483+  0000             #ELSE
0484+  0000               #DEFINE	PRPLBL		""
0485+  0000             #ENDIF
0486+  0000             
0487+  0000~            #IF (PPPENABLE)
0488+  0000~              #IF (PPPCONENABLE & PPPSDENABLE)
0489+  0000~                #DEFINE	PPPLBL		", PARPORTPROP (CONSOLE, SD CARD)"
0490+  0000~              #ENDIF
0491+  0000~              #IF (PPPCONENABLE & !PPPSDENABLE)
0492+  0000~                #DEFINE	PPPLBL		", PARPORTPROP (CONSOLE)"
0493+  0000~              #ENDIF
0494+  0000~              #IF (!PPPCONENABLE & PPPSDENABLE)
0495+  0000~                #DEFINE	PPPLBL		", PARPORTPROP (SD CARD)"
0496+  0000~              #ENDIF
0497+  0000~              #IF (!PPPCONENABLE & !PPPSDENABLE)
0498+  0000~                #DEFINE	PPPLBL		", PARPORTPROP ()"
0499+  0000~              #ENDIF
0500+  0000             #ELSE
0501+  0000               #DEFINE	PPPLBL		""
0502+  0000             #ENDIF
0503+  0000             
0504+  0000~            #IFDEF (HISTENABLE)
0505+  0000~            	#DEFINE	HISTLBL		", HIST"
0506+  0000             #ELSE
0507+  0000             	#DEFINE	HISTLBL		""
0508+  0000             #ENDIF
0509+  0000             
0510+  0000             	.ECHO	"Configuration: "
0511+  0000             	.ECHO	PLATFORM_NAME
0512+  0000             	.ECHO	DSKYLBL
0513+  0000             	.ECHO	VDULBL
0514+  0000             	.ECHO	FDLBL
0515+  0000             	.ECHO	IDELBL
0516+  0000             	.ECHO	PPIDELBL
0517+  0000             	.ECHO	SDLBL
0518+  0000             	.ECHO	PRPLBL
0519+  0000             	.ECHO	PPPLBL
0520+  0000             	.ECHO	HISTLBL
0521+  0000             	.ECHO	"\n"
0522+  0000             ;
0523+  0000             ; HELPER MACROS
0524+  0000             ;
0525+  0000             #DEFINE	PRTC(C)	CALL PRTCH \ .DB C			; PRINT CHARACTER C TO CONSOLE - PRTC('X')
0526+  0000             #DEFINE	PRTS(S)	CALL PRTSTRD \ .DB S			; PRINT STRING S TO CONSOLE - PRTD("HELLO")
0527+  0000             #DEFINE	PRTX(X) CALL PRTSTRI \ .DW X			; PRINT STRING AT ADDRESS X TO CONSOLE - PRTI(STR_HELLO)
0528+  0000             ;
0529+  0000             #DEFINE	XIO_PRTC(C)	CALL XIO_PRTCH \ .DB C	; PRINT CHARACTER C TO CONSOLE - PRTC('X')
0530+  0000             #DEFINE	XIO_PRTS(S)	CALL XIO_PRTSTRD \ .DB S	; PRINT STRING S TO CONSOLE - PRTD("HELLO")
0531+  0000             #DEFINE	XIO_PRTX(X)	CALL XIO_PRTSTRI \ .DW X	; PRINT STRING AT ADDRESS X TO CONSOLE - PRTI(STR_HELLO)
0147   0000             ;
0148   0000             #DEFINE		S2I_VERTAG	"0.7 "	; 4 BYTE VERSION TAG STRING
0149   0000             ;
0150   0000             ; THE FOLLOWING MACRO CAN BE USED TO ADD AN ARBITRARY DELAY BETWEEN PHASES.
0151   0000             ; IF DESIRED, UNCOMMENT THE LINE AND SET TO DESIRED DELAY (S2I_DELAY1, S2I_DELAY2,
0152   0000             ; S2I_DELAY4, S2I_DELAY8, ..., S2I_DELAY256)
0153   0000             ;
0154   0000             ;#DEFINE		S2I_IPDELAY	S2I_DELAY4	; INTERPHASE DELAY
0155   0000             ;
0156   0000             ; SCSI CONTROLLER PORT ADDRESSES
0157   0000             ;
0158   0000             S2I_BASE	.EQU	$80
0159   0000             
0160   0000             SCSI_BASE	.EQU	S2I_BASE + 8
0161   0000             ;
0162   0000             ; SCSI CONTROLLER REGISTER PORTS
0163   0000             ;
0164   0000             S2I_CDR		.EQU	SCSI_BASE + 0	; CURRENT SCSI DATA REGISTER
0165   0000             S2I_ICR		.EQU	SCSI_BASE + 1	; INITIATOR COMMAND REGISTER
0166   0000             S2I_MR		.EQU	SCSI_BASE + 2	; MODE REGISTER
0167   0000             S2I_TCR		.EQU	SCSI_BASE + 3	; TARGET COMMAND REGISTER
0168   0000             S2I_CBS		.EQU	SCSI_BASE + 4	; CURRENT SCSI BUS STATUS REGISTER
0169   0000             S2I_SER		.EQU	SCSI_BASE + 4	; SELECT ENABLE REGISTER
0170   0000             S2I_BSR		.EQU	SCSI_BASE + 5	; BUS AND STATUS REGISTER
0171   0000             S2I_SDS		.EQU	SCSI_BASE + 5	; START DMA SEND
0172   0000             S2I_IDR		.EQU	SCSI_BASE + 6	; INPUT DATA REGISTER
0173   0000             S2I_SDTR	.EQU	SCSI_BASE + 6	; START DMA TARGET RECEIVE
0174   0000             S2I_RPI		.EQU	SCSI_BASE + 7	; RESET PARITY/INTERRUPT
0175   0000             S2I_SDIR	.EQU	SCSI_BASE + 7	; START DMA INITIATOR RECEIVE
0176   0000             ;
0177   0000             ; PHASE CONFIGURATION BITS
0178   0000             ;
0179   0000             S2I_PHMSGOUT	.EQU	%00000110	; MSG + C/D
0180   0000             S2I_PHMSGIN	.EQU	%00000111	; MSG + C/D + I/O
0181   0000             S2I_PHCMD	.EQU	%00000010	; C/D
0182   0000             S2I_PHSTATUS	.EQU	%00000011	; C/D + I/O
0183   0000             S2I_PHDATAOUT	.EQU	%00000000	; <NOTHING ASSERTED>
0184   0000             S2I_PHDATAIN	.EQU	%00000001	; I/O
0185   0000             ;
0186   0000             ;==================================================================================================
0187   0000             ;   DERIVED VALUES
0188   0000             ;==================================================================================================
0189   0000             ;
0190   0000             ; THE LUN OFFSET IS THE VALUE ADDED TO THE HIGH WORD OF THE 32-BIT BLOCK VALUE
0191   0000             ; TO ADJUST FOR THE LUN BEING ADDRESSED.  INCREMEMENTING THE HIGH WORD BY ONE
0192   0000             ; IS "WORTH" 32MB.
0193   0000             ;
0194   0000             S2I_LUN_OFFSET	.EQU	(S2I_LUNSIZ + 31) / 32
0195   0000             ;
0196   0000             ;==================================================================================================
0197   0000             ;   CONFIGURATION
0198   0000             ;==================================================================================================
0199   0000             ;
0200   0000             ; CONFIGURATION SETTINGS HAVE BEEN MOVED TO "CONFIG_S2I_XXX.ASM" FILE(S)
0201   0000             ;
0202   0000             ;==================================================================================================
0203   0000             ;   PAGE ZERO AND STARTUP CODE
0204   0000             ;==================================================================================================
0205   0000             ;
0206   0000             	.ORG	$0
0207   0000 C3 00 01    	JP	INIT			; COLD START VECTOR
0208   0003 FF FF FF FF 	.FILL	$08-$
0208   0007 FF 
0209   0008 C3 20 FF    	JP	$FF20			; HBIOS DISPATCH
0210   000B FF FF FF FF 	.FILL	$30-$
0210   000F FF FF FF FF 
0210   0013 FF FF FF FF 
0210   0017 FF FF FF FF 
0210   001B FF FF FF FF 
0210   001F FF FF FF FF 
0210   0023 FF FF FF FF 
0210   0027 FF FF FF FF 
0210   002B FF FF FF FF 
0210   002F FF 
0211   0030 C3 1E 60    	JP	$601E			; ZAPPLE BREAKPOINT VECTOR
0212   0033 FF FF FF FF 	.FILL	$38-$
0212   0037 FF 
0213   0038 C3 51 10    	JP	S2I_BUSRESINT		; BUS RESET INTERRUPT
0214   003B FF FF FF FF 	.FILL	$100-$
0214   003F FF FF FF FF 
0214   0043 FF FF FF FF 
0214   0047 FF FF FF FF 
0214   004B FF FF FF FF 
0214   004F FF FF FF FF 
0214   0053 FF FF FF FF 
0214   0057 FF FF FF FF 
0214   005B FF FF FF FF 
0214   005F FF FF FF FF 
0214   0063 FF FF FF FF 
0214   0067 FF FF FF FF 
0214   006B FF FF FF FF 
0214   006F FF FF FF FF 
0214   0073 FF FF FF FF 
0214   0077 FF FF FF FF 
0214   007B FF FF FF FF 
0214   007F FF FF FF FF 
0214   0083 FF FF FF FF 
0214   0087 FF FF FF FF 
0214   008B FF FF FF FF 
0214   008F FF FF FF FF 
0214   0093 FF FF FF FF 
0214   0097 FF FF FF FF 
0214   009B FF FF FF FF 
0214   009F FF FF FF FF 
0214   00A3 FF FF FF FF 
0214   00A7 FF FF FF FF 
0214   00AB FF FF FF FF 
0214   00AF FF FF FF FF 
0214   00B3 FF FF FF FF 
0214   00B7 FF FF FF FF 
0214   00BB FF FF FF FF 
0214   00BF FF FF FF FF 
0214   00C3 FF FF FF FF 
0214   00C7 FF FF FF FF 
0214   00CB FF FF FF FF 
0214   00CF FF FF FF FF 
0214   00D3 FF FF FF FF 
0214   00D7 FF FF FF FF 
0214   00DB FF FF FF FF 
0214   00DF FF FF FF FF 
0214   00E3 FF FF FF FF 
0214   00E7 FF FF FF FF 
0214   00EB FF FF FF FF 
0214   00EF FF FF FF FF 
0214   00F3 FF FF FF FF 
0214   00F7 FF FF FF FF 
0214   00FB FF FF FF FF 
0214   00FF FF 
0215   0100             ;
0216   0100             ; INITIALIZATION
0217   0100             ;
0218   0100             INIT:
0219   0100 F3          	DI
0220   0101 ED 56       	IM	1
0221   0103 31 00 00    	LD	SP,0			; STACK AT TOP OF MEMORY
0222   0106             ;	
0223   0106             	; EMIT FIRST SIGN OF LIFE TO SERIAL PORT
0224   0106 CD 2B 01    	CALL	XIO_INIT		; INIT SERIAL PORT
0225   0109 21 26 01    	LD	HL,STR_BOOT		; POINT TO MESSAGE
0226   010C CD 5B 01    	CALL	XIO_OUTS		; SAY HELLO
0227   010F CD 4E 01    	CALL	XIO_DOT			; MARK PROGRESS
0228   0112             ;
0229   0112             	; COPY HBIOS TO RAM
0230   0112 21 00 70    	LD	HL,$7000		; HBIOS ROM IMAGE LOC
0231   0115 11 00 F0    	LD	DE,$F000		; HBIOS OPERATING LOC
0232   0118 01 00 10    	LD	BC,$1000		; SIZE OF HBIOS
0233   011B ED B0       	LDIR				; COPY IT
0234   011D CD 4E 01    	CALL	XIO_DOT			; MARK PROGRESS
0235   0120             ;
0236   0120             	; INITIALIZE HBIOS
0237   0120 CD 00 70    	CALL	$7000			; CALL HBIOS INIT AT $7000
0238   0123             ;
0239   0123             	; PASS CONTROL TO ZAPPLE
0240   0123 C3 00 60    	JP	$6000			; GO TO ZAPPLE
0241   0126             ;
0242   0126 42 6F 6F 74 STR_BOOT	.DB	"Boot$"
0242   012A 24 
0243   012B             ;
0244   012B             ; IMBED DIRECT SERIAL I/O ROUTINES
0245   012B             ;
0246   012B             #INCLUDE "xio.asm"
0001+  012B             ;___XIO________________________________________________________________________________________________________________
0002+  012B             ;
0003+  012B             ; DIRECT SERIAL I/O
0004+  012B             ;
0005+  012B             ;   PROVIDES INTERFACE TO PLATFORM BASE SERIAL I/O DEVICE
0006+  012B             ;   ALLOWS USER MESSAGING/INTERACTION PRIOR TO AND DURING HBIOS INIT
0007+  012B             ;______________________________________________________________________________________________________________________
0008+  012B             ;
0009+  012B             XIO_INIT:	; MINIMAL UART INIT
0010+  012B~            #IF (PLATFORM == PLT_N8)
0011+  012B~            	; ASCI0
0012+  012B~            	LD	A,66H
0013+  012B~            	OUT0	(CPU_ASEXT0),A
0014+  012B~            	LD	A,64H
0015+  012B~            	OUT0	(CPU_CNTLA0),A
0016+  012B~            	LD	A,Z180_CNTLB0
0017+  012B~            	OUT0	(CPU_CNTLB0),A
0018+  012B~            	RET
0019+  012B             #ELSE
0020+  012B             XIO_DIV		.EQU	(1843200 / (16 * BAUDRATE))
0021+  012B             
0022+  012B 3E 80       	LD	A,$80			; LCR := DLAB ON
0023+  012D D3 93       	OUT	(SIO_LCR),A		; SET LCR
0024+  012F 3E 03       	LD	A,XIO_DIV		; BAUD RATE DIVISOR (LSB)
0025+  0131 D3 90       	OUT	(SIO_DLL),A		; SET DIVISOR (LSB)
0026+  0133 AF          	XOR	A			; BAUD RATE DIVISOR (MSB), ALWAYS 0
0027+  0134 D3 91       	OUT	(SIO_DLM),A		; SET DIVISOR (MSB)
0028+  0136 3E 03       	LD	A,03H			; VALUE FOR LCR AND MCR
0029+  0138 D3 93       	OUT	(SIO_LCR),A		; LCR := 3, DLAB OFF, 8 DATA, 1 STOP, NO PARITY
0030+  013A D3 94       	OUT  	(SIO_MCR),A		; MCR := 3, DTR ON, RTS ON
0031+  013C 3E 06       	LD	A,6			; DISABLE & RESET FIFO'S
0032+  013E D3 92       	OUT	(SIO_FCR),A		; DO IT
0033+  0140 C9          	RET
0034+  0141             #ENDIF
0035+  0141             ;
0036+  0141             XIO_CRLF:	; OUTPUT A NEWLINE
0037+  0141 3E 0D       	LD	A,13			; A = CR
0038+  0143 CD 50 01    	CALL	XIO_OUTC		; WRITE IT
0039+  0146 3E 0A       	LD	A,10			; A = LF
0040+  0148 18 06       	JR	XIO_OUTC		; WRITE IT
0041+  014A             ;
0042+  014A             XIO_SPACE:	; OUTPUT A SPACE CHARACTER
0043+  014A 3E 20       	LD	A,' '
0044+  014C 18 02       	JR	XIO_OUTC
0045+  014E             ;
0046+  014E             XIO_DOT:	; OUTPUT A DOT (MARK PROGRESS)
0047+  014E 3E 2E       	LD	A,'.'
0048+  0150             ;	
0049+  0150             XIO_OUTC:	; OUTPUT BYTE IN A
0050+  0150~            #IF (PLATFORM == PLT_N8)
0051+  0150~            	PUSH	AF			; SAVE INCOMING BYTE
0052+  0150~            XIO_OUTC1:
0053+  0150~            	IN0	A,(CPU_STAT0)
0054+  0150~            	AND	$02
0055+  0150~            	JR	Z,XIO_OUTC1
0056+  0150~            	POP	AF
0057+  0150~            	OUT0	(CPU_TDR0),A
0058+  0150~            	RET
0059+  0150             #ELSE
0060+  0150 F5          	PUSH	AF			; SAVE INCOMING BYTE
0061+  0151             XIO_OUTC1:
0062+  0151 DB 95       	IN	A,(SIO_LSR)		; READ LINE STATUS REGISTER
0063+  0153 E6 20       	AND	$20			; ISOLATE THRE
0064+  0155 28 FA       	JR	Z,XIO_OUTC1		; LOOP TILL READY (EMPTY)
0065+  0157 F1          	POP	AF			; RECOVER BYTE TO WRITE
0066+  0158 D3 90       	OUT	(SIO_THR),A		; WRITE THE CHAR TO UART
0067+  015A C9          	RET
0068+  015B             #ENDIF
0069+  015B             ;
0070+  015B             XIO_OUTS:	; OUTPUT '$' TERMINATED STRING AT ADDRESS IN HL
0071+  015B 7E          	LD	A,(HL)			; GET NEXT BYTE
0072+  015C FE 24       	CP	'$'			; END OF STRING?
0073+  015E C8          	RET	Z			; YES, GET OUT
0074+  015F CD 50 01    	CALL	XIO_OUTC		; OTHERWISE, WRITE IT
0075+  0162 23          	INC	HL			; POINT TO NEXT BYTE
0076+  0163 18 F6       	JR	XIO_OUTS		; AND LOOP
0247   0165             ;
0248   0165             ;	ROM AREA FROM $1000 TO $5FFF IS USED FOR S2I CONTROL PROGRAM
0249   0165             ;
0250   0165 FF FF FF FF 	.FILL	$1000 - $
0250   0169 FF FF FF FF 
0250   016D FF FF FF FF 
0250   0171 FF FF FF FF 
0250   0175 FF FF FF FF 
0250   0179 FF FF FF FF 
0250   017D FF FF FF FF 
0250   0181 FF FF FF FF 
0250   0185 FF FF FF FF 
0250   0189 FF FF FF FF 
0250   018D FF FF FF FF 
0250   0191 FF FF FF FF 
0250   0195 FF FF FF FF 
0250   0199 FF FF FF FF 
0250   019D FF FF FF FF 
0250   01A1 FF FF FF FF 
0250   01A5 FF FF FF FF 
0250   01A9 FF FF FF FF 
0250   01AD FF FF FF FF 
0250   01B1 FF FF FF FF 
0250   01B5 FF FF FF FF 
0250   01B9 FF FF FF FF 
0250   01BD FF FF FF FF 
0250   01C1 FF FF FF FF 
0250   01C5 FF FF FF FF 
0250   01C9 FF FF FF FF 
0250   01CD FF FF FF FF 
0250   01D1 FF FF FF FF 
0250   01D5 FF FF FF FF 
0250   01D9 FF FF FF FF 
0250   01DD FF FF FF FF 
0250   01E1 FF FF FF FF 
0250   01E5 FF FF FF FF 
0250   01E9 FF FF FF FF 
0250   01ED FF FF FF FF 
0250   01F1 FF FF FF FF 
0250   01F5 FF FF FF FF 
0250   01F9 FF FF FF FF 
0250   01FD FF FF FF FF 
0250   0201 FF FF FF FF 
0250   0205 FF FF FF FF 
0250   0209 FF FF FF FF 
0250   020D FF FF FF FF 
0250   0211 FF FF FF FF 
0250   0215 FF FF FF FF 
0250   0219 FF FF FF FF 
0250   021D FF FF FF FF 
0250   0221 FF FF FF FF 
0250   0225 FF FF FF FF 
0250   0229 FF FF FF FF 
0250   022D FF FF FF FF 
0250   0231 FF FF FF FF 
0250   0235 FF FF FF FF 
0250   0239 FF FF FF FF 
0250   023D FF FF FF FF 
0250   0241 FF FF FF FF 
0250   0245 FF FF FF FF 
0250   0249 FF FF FF FF 
0250   024D FF FF FF FF 
0250   0251 FF FF FF FF 
0250   0255 FF FF FF FF 
0250   0259 FF FF FF FF 
0250   025D FF FF FF FF 
0250   0261 FF FF FF FF 
0250   0265 FF FF FF FF 
0250   0269 FF FF FF FF 
0250   026D FF FF FF FF 
0250   0271 FF FF FF FF 
0250   0275 FF FF FF FF 
0250   0279 FF FF FF FF 
0250   027D FF FF FF FF 
0250   0281 FF FF FF FF 
0250   0285 FF FF FF FF 
0250   0289 FF FF FF FF 
0250   028D FF FF FF FF 
0250   0291 FF FF FF FF 
0250   0295 FF FF FF FF 
0250   0299 FF FF FF FF 
0250   029D FF FF FF FF 
0250   02A1 FF FF FF FF 
0250   02A5 FF FF FF FF 
0250   02A9 FF FF FF FF 
0250   02AD FF FF FF FF 
0250   02B1 FF FF FF FF 
0250   02B5 FF FF FF FF 
0250   02B9 FF FF FF FF 
0250   02BD FF FF FF FF 
0250   02C1 FF FF FF FF 
0250   02C5 FF FF FF FF 
0250   02C9 FF FF FF FF 
0250   02CD FF FF FF FF 
0250   02D1 FF FF FF FF 
0250   02D5 FF FF FF FF 
0250   02D9 FF FF FF FF 
0250   02DD FF FF FF FF 
0250   02E1 FF FF FF FF 
0250   02E5 FF FF FF FF 
0250   02E9 FF FF FF FF 
0250   02ED FF FF FF FF 
0250   02F1 FF FF FF FF 
0250   02F5 FF FF FF FF 
0250   02F9 FF FF FF FF 
0250   02FD FF FF FF FF 
0250   0301 FF FF FF FF 
0250   0305 FF FF FF FF 
0250   0309 FF FF FF FF 
0250   030D FF FF FF FF 
0250   0311 FF FF FF FF 
0250   0315 FF FF FF FF 
0250   0319 FF FF FF FF 
0250   031D FF FF FF FF 
0250   0321 FF FF FF FF 
0250   0325 FF FF FF FF 
0250   0329 FF FF FF FF 
0250   032D FF FF FF FF 
0250   0331 FF FF FF FF 
0250   0335 FF FF FF FF 
0250   0339 FF FF FF FF 
0250   033D FF FF FF FF 
0250   0341 FF FF FF FF 
0250   0345 FF FF FF FF 
0250   0349 FF FF FF FF 
0250   034D FF FF FF FF 
0250   0351 FF FF FF FF 
0250   0355 FF FF FF FF 
0250   0359 FF FF FF FF 
0250   035D FF FF FF FF 
0250   0361 FF FF FF FF 
0250   0365 FF FF FF FF 
0250   0369 FF FF FF FF 
0250   036D FF FF FF FF 
0250   0371 FF FF FF FF 
0250   0375 FF FF FF FF 
0250   0379 FF FF FF FF 
0250   037D FF FF FF FF 
0250   0381 FF FF FF FF 
0250   0385 FF FF FF FF 
0250   0389 FF FF FF FF 
0250   038D FF FF FF FF 
0250   0391 FF FF FF FF 
0250   0395 FF FF FF FF 
0250   0399 FF FF FF FF 
0250   039D FF FF FF FF 
0250   03A1 FF FF FF FF 
0250   03A5 FF FF FF FF 
0250   03A9 FF FF FF FF 
0250   03AD FF FF FF FF 
0250   03B1 FF FF FF FF 
0250   03B5 FF FF FF FF 
0250   03B9 FF FF FF FF 
0250   03BD FF FF FF FF 
0250   03C1 FF FF FF FF 
0250   03C5 FF FF FF FF 
0250   03C9 FF FF FF FF 
0250   03CD FF FF FF FF 
0250   03D1 FF FF FF FF 
0250   03D5 FF FF FF FF 
0250   03D9 FF FF FF FF 
0250   03DD FF FF FF FF 
0250   03E1 FF FF FF FF 
0250   03E5 FF FF FF FF 
0250   03E9 FF FF FF FF 
0250   03ED FF FF FF FF 
0250   03F1 FF FF FF FF 
0250   03F5 FF FF FF FF 
0250   03F9 FF FF FF FF 
0250   03FD FF FF FF FF 
0250   0401 FF FF FF FF 
0250   0405 FF FF FF FF 
0250   0409 FF FF FF FF 
0250   040D FF FF FF FF 
0250   0411 FF FF FF FF 
0250   0415 FF FF FF FF 
0250   0419 FF FF FF FF 
0250   041D FF FF FF FF 
0250   0421 FF FF FF FF 
0250   0425 FF FF FF FF 
0250   0429 FF FF FF FF 
0250   042D FF FF FF FF 
0250   0431 FF FF FF FF 
0250   0435 FF FF FF FF 
0250   0439 FF FF FF FF 
0250   043D FF FF FF FF 
0250   0441 FF FF FF FF 
0250   0445 FF FF FF FF 
0250   0449 FF FF FF FF 
0250   044D FF FF FF FF 
0250   0451 FF FF FF FF 
0250   0455 FF FF FF FF 
0250   0459 FF FF FF FF 
0250   045D FF FF FF FF 
0250   0461 FF FF FF FF 
0250   0465 FF FF FF FF 
0250   0469 FF FF FF FF 
0250   046D FF FF FF FF 
0250   0471 FF FF FF FF 
0250   0475 FF FF FF FF 
0250   0479 FF FF FF FF 
0250   047D FF FF FF FF 
0250   0481 FF FF FF FF 
0250   0485 FF FF FF FF 
0250   0489 FF FF FF FF 
0250   048D FF FF FF FF 
0250   0491 FF FF FF FF 
0250   0495 FF FF FF FF 
0250   0499 FF FF FF FF 
0250   049D FF FF FF FF 
0250   04A1 FF FF FF FF 
0250   04A5 FF FF FF FF 
0250   04A9 FF FF FF FF 
0250   04AD FF FF FF FF 
0250   04B1 FF FF FF FF 
0250   04B5 FF FF FF FF 
0250   04B9 FF FF FF FF 
0250   04BD FF FF FF FF 
0250   04C1 FF FF FF FF 
0250   04C5 FF FF FF FF 
0250   04C9 FF FF FF FF 
0250   04CD FF FF FF FF 
0250   04D1 FF FF FF FF 
0250   04D5 FF FF FF FF 
0250   04D9 FF FF FF FF 
0250   04DD FF FF FF FF 
0250   04E1 FF FF FF FF 
0250   04E5 FF FF FF FF 
0250   04E9 FF FF FF FF 
0250   04ED FF FF FF FF 
0250   04F1 FF FF FF FF 
0250   04F5 FF FF FF FF 
0250   04F9 FF FF FF FF 
0250   04FD FF FF FF FF 
0250   0501 FF FF FF FF 
0250   0505 FF FF FF FF 
0250   0509 FF FF FF FF 
0250   050D FF FF FF FF 
0250   0511 FF FF FF FF 
0250   0515 FF FF FF FF 
0250   0519 FF FF FF FF 
0250   051D FF FF FF FF 
0250   0521 FF FF FF FF 
0250   0525 FF FF FF FF 
0250   0529 FF FF FF FF 
0250   052D FF FF FF FF 
0250   0531 FF FF FF FF 
0250   0535 FF FF FF FF 
0250   0539 FF FF FF FF 
0250   053D FF FF FF FF 
0250   0541 FF FF FF FF 
0250   0545 FF FF FF FF 
0250   0549 FF FF FF FF 
0250   054D FF FF FF FF 
0250   0551 FF FF FF FF 
0250   0555 FF FF FF FF 
0250   0559 FF FF FF FF 
0250   055D FF FF FF FF 
0250   0561 FF FF FF FF 
0250   0565 FF FF FF FF 
0250   0569 FF FF FF FF 
0250   056D FF FF FF FF 
0250   0571 FF FF FF FF 
0250   0575 FF FF FF FF 
0250   0579 FF FF FF FF 
0250   057D FF FF FF FF 
0250   0581 FF FF FF FF 
0250   0585 FF FF FF FF 
0250   0589 FF FF FF FF 
0250   058D FF FF FF FF 
0250   0591 FF FF FF FF 
0250   0595 FF FF FF FF 
0250   0599 FF FF FF FF 
0250   059D FF FF FF FF 
0250   05A1 FF FF FF FF 
0250   05A5 FF FF FF FF 
0250   05A9 FF FF FF FF 
0250   05AD FF FF FF FF 
0250   05B1 FF FF FF FF 
0250   05B5 FF FF FF FF 
0250   05B9 FF FF FF FF 
0250   05BD FF FF FF FF 
0250   05C1 FF FF FF FF 
0250   05C5 FF FF FF FF 
0250   05C9 FF FF FF FF 
0250   05CD FF FF FF FF 
0250   05D1 FF FF FF FF 
0250   05D5 FF FF FF FF 
0250   05D9 FF FF FF FF 
0250   05DD FF FF FF FF 
0250   05E1 FF FF FF FF 
0250   05E5 FF FF FF FF 
0250   05E9 FF FF FF FF 
0250   05ED FF FF FF FF 
0250   05F1 FF FF FF FF 
0250   05F5 FF FF FF FF 
0250   05F9 FF FF FF FF 
0250   05FD FF FF FF FF 
0250   0601 FF FF FF FF 
0250   0605 FF FF FF FF 
0250   0609 FF FF FF FF 
0250   060D FF FF FF FF 
0250   0611 FF FF FF FF 
0250   0615 FF FF FF FF 
0250   0619 FF FF FF FF 
0250   061D FF FF FF FF 
0250   0621 FF FF FF FF 
0250   0625 FF FF FF FF 
0250   0629 FF FF FF FF 
0250   062D FF FF FF FF 
0250   0631 FF FF FF FF 
0250   0635 FF FF FF FF 
0250   0639 FF FF FF FF 
0250   063D FF FF FF FF 
0250   0641 FF FF FF FF 
0250   0645 FF FF FF FF 
0250   0649 FF FF FF FF 
0250   064D FF FF FF FF 
0250   0651 FF FF FF FF 
0250   0655 FF FF FF FF 
0250   0659 FF FF FF FF 
0250   065D FF FF FF FF 
0250   0661 FF FF FF FF 
0250   0665 FF FF FF FF 
0250   0669 FF FF FF FF 
0250   066D FF FF FF FF 
0250   0671 FF FF FF FF 
0250   0675 FF FF FF FF 
0250   0679 FF FF FF FF 
0250   067D FF FF FF FF 
0250   0681 FF FF FF FF 
0250   0685 FF FF FF FF 
0250   0689 FF FF FF FF 
0250   068D FF FF FF FF 
0250   0691 FF FF FF FF 
0250   0695 FF FF FF FF 
0250   0699 FF FF FF FF 
0250   069D FF FF FF FF 
0250   06A1 FF FF FF FF 
0250   06A5 FF FF FF FF 
0250   06A9 FF FF FF FF 
0250   06AD FF FF FF FF 
0250   06B1 FF FF FF FF 
0250   06B5 FF FF FF FF 
0250   06B9 FF FF FF FF 
0250   06BD FF FF FF FF 
0250   06C1 FF FF FF FF 
0250   06C5 FF FF FF FF 
0250   06C9 FF FF FF FF 
0250   06CD FF FF FF FF 
0250   06D1 FF FF FF FF 
0250   06D5 FF FF FF FF 
0250   06D9 FF FF FF FF 
0250   06DD FF FF FF FF 
0250   06E1 FF FF FF FF 
0250   06E5 FF FF FF FF 
0250   06E9 FF FF FF FF 
0250   06ED FF FF FF FF 
0250   06F1 FF FF FF FF 
0250   06F5 FF FF FF FF 
0250   06F9 FF FF FF FF 
0250   06FD FF FF FF FF 
0250   0701 FF FF FF FF 
0250   0705 FF FF FF FF 
0250   0709 FF FF FF FF 
0250   070D FF FF FF FF 
0250   0711 FF FF FF FF 
0250   0715 FF FF FF FF 
0250   0719 FF FF FF FF 
0250   071D FF FF FF FF 
0250   0721 FF FF FF FF 
0250   0725 FF FF FF FF 
0250   0729 FF FF FF FF 
0250   072D FF FF FF FF 
0250   0731 FF FF FF FF 
0250   0735 FF FF FF FF 
0250   0739 FF FF FF FF 
0250   073D FF FF FF FF 
0250   0741 FF FF FF FF 
0250   0745 FF FF FF FF 
0250   0749 FF FF FF FF 
0250   074D FF FF FF FF 
0250   0751 FF FF FF FF 
0250   0755 FF FF FF FF 
0250   0759 FF FF FF FF 
0250   075D FF FF FF FF 
0250   0761 FF FF FF FF 
0250   0765 FF FF FF FF 
0250   0769 FF FF FF FF 
0250   076D FF FF FF FF 
0250   0771 FF FF FF FF 
0250   0775 FF FF FF FF 
0250   0779 FF FF FF FF 
0250   077D FF FF FF FF 
0250   0781 FF FF FF FF 
0250   0785 FF FF FF FF 
0250   0789 FF FF FF FF 
0250   078D FF FF FF FF 
0250   0791 FF FF FF FF 
0250   0795 FF FF FF FF 
0250   0799 FF FF FF FF 
0250   079D FF FF FF FF 
0250   07A1 FF FF FF FF 
0250   07A5 FF FF FF FF 
0250   07A9 FF FF FF FF 
0250   07AD FF FF FF FF 
0250   07B1 FF FF FF FF 
0250   07B5 FF FF FF FF 
0250   07B9 FF FF FF FF 
0250   07BD FF FF FF FF 
0250   07C1 FF FF FF FF 
0250   07C5 FF FF FF FF 
0250   07C9 FF FF FF FF 
0250   07CD FF FF FF FF 
0250   07D1 FF FF FF FF 
0250   07D5 FF FF FF FF 
0250   07D9 FF FF FF FF 
0250   07DD FF FF FF FF 
0250   07E1 FF FF FF FF 
0250   07E5 FF FF FF FF 
0250   07E9 FF FF FF FF 
0250   07ED FF FF FF FF 
0250   07F1 FF FF FF FF 
0250   07F5 FF FF FF FF 
0250   07F9 FF FF FF FF 
0250   07FD FF FF FF FF 
0250   0801 FF FF FF FF 
0250   0805 FF FF FF FF 
0250   0809 FF FF FF FF 
0250   080D FF FF FF FF 
0250   0811 FF FF FF FF 
0250   0815 FF FF FF FF 
0250   0819 FF FF FF FF 
0250   081D FF FF FF FF 
0250   0821 FF FF FF FF 
0250   0825 FF FF FF FF 
0250   0829 FF FF FF FF 
0250   082D FF FF FF FF 
0250   0831 FF FF FF FF 
0250   0835 FF FF FF FF 
0250   0839 FF FF FF FF 
0250   083D FF FF FF FF 
0250   0841 FF FF FF FF 
0250   0845 FF FF FF FF 
0250   0849 FF FF FF FF 
0250   084D FF FF FF FF 
0250   0851 FF FF FF FF 
0250   0855 FF FF FF FF 
0250   0859 FF FF FF FF 
0250   085D FF FF FF FF 
0250   0861 FF FF FF FF 
0250   0865 FF FF FF FF 
0250   0869 FF FF FF FF 
0250   086D FF FF FF FF 
0250   0871 FF FF FF FF 
0250   0875 FF FF FF FF 
0250   0879 FF FF FF FF 
0250   087D FF FF FF FF 
0250   0881 FF FF FF FF 
0250   0885 FF FF FF FF 
0250   0889 FF FF FF FF 
0250   088D FF FF FF FF 
0250   0891 FF FF FF FF 
0250   0895 FF FF FF FF 
0250   0899 FF FF FF FF 
0250   089D FF FF FF FF 
0250   08A1 FF FF FF FF 
0250   08A5 FF FF FF FF 
0250   08A9 FF FF FF FF 
0250   08AD FF FF FF FF 
0250   08B1 FF FF FF FF 
0250   08B5 FF FF FF FF 
0250   08B9 FF FF FF FF 
0250   08BD FF FF FF FF 
0250   08C1 FF FF FF FF 
0250   08C5 FF FF FF FF 
0250   08C9 FF FF FF FF 
0250   08CD FF FF FF FF 
0250   08D1 FF FF FF FF 
0250   08D5 FF FF FF FF 
0250   08D9 FF FF FF FF 
0250   08DD FF FF FF FF 
0250   08E1 FF FF FF FF 
0250   08E5 FF FF FF FF 
0250   08E9 FF FF FF FF 
0250   08ED FF FF FF FF 
0250   08F1 FF FF FF FF 
0250   08F5 FF FF FF FF 
0250   08F9 FF FF FF FF 
0250   08FD FF FF FF FF 
0250   0901 FF FF FF FF 
0250   0905 FF FF FF FF 
0250   0909 FF FF FF FF 
0250   090D FF FF FF FF 
0250   0911 FF FF FF FF 
0250   0915 FF FF FF FF 
0250   0919 FF FF FF FF 
0250   091D FF FF FF FF 
0250   0921 FF FF FF FF 
0250   0925 FF FF FF FF 
0250   0929 FF FF FF FF 
0250   092D FF FF FF FF 
0250   0931 FF FF FF FF 
0250   0935 FF FF FF FF 
0250   0939 FF FF FF FF 
0250   093D FF FF FF FF 
0250   0941 FF FF FF FF 
0250   0945 FF FF FF FF 
0250   0949 FF FF FF FF 
0250   094D FF FF FF FF 
0250   0951 FF FF FF FF 
0250   0955 FF FF FF FF 
0250   0959 FF FF FF FF 
0250   095D FF FF FF FF 
0250   0961 FF FF FF FF 
0250   0965 FF FF FF FF 
0250   0969 FF FF FF FF 
0250   096D FF FF FF FF 
0250   0971 FF FF FF FF 
0250   0975 FF FF FF FF 
0250   0979 FF FF FF FF 
0250   097D FF FF FF FF 
0250   0981 FF FF FF FF 
0250   0985 FF FF FF FF 
0250   0989 FF FF FF FF 
0250   098D FF FF FF FF 
0250   0991 FF FF FF FF 
0250   0995 FF FF FF FF 
0250   0999 FF FF FF FF 
0250   099D FF FF FF FF 
0250   09A1 FF FF FF FF 
0250   09A5 FF FF FF FF 
0250   09A9 FF FF FF FF 
0250   09AD FF FF FF FF 
0250   09B1 FF FF FF FF 
0250   09B5 FF FF FF FF 
0250   09B9 FF FF FF FF 
0250   09BD FF FF FF FF 
0250   09C1 FF FF FF FF 
0250   09C5 FF FF FF FF 
0250   09C9 FF FF FF FF 
0250   09CD FF FF FF FF 
0250   09D1 FF FF FF FF 
0250   09D5 FF FF FF FF 
0250   09D9 FF FF FF FF 
0250   09DD FF FF FF FF 
0250   09E1 FF FF FF FF 
0250   09E5 FF FF FF FF 
0250   09E9 FF FF FF FF 
0250   09ED FF FF FF FF 
0250   09F1 FF FF FF FF 
0250   09F5 FF FF FF FF 
0250   09F9 FF FF FF FF 
0250   09FD FF FF FF FF 
0250   0A01 FF FF FF FF 
0250   0A05 FF FF FF FF 
0250   0A09 FF FF FF FF 
0250   0A0D FF FF FF FF 
0250   0A11 FF FF FF FF 
0250   0A15 FF FF FF FF 
0250   0A19 FF FF FF FF 
0250   0A1D FF FF FF FF 
0250   0A21 FF FF FF FF 
0250   0A25 FF FF FF FF 
0250   0A29 FF FF FF FF 
0250   0A2D FF FF FF FF 
0250   0A31 FF FF FF FF 
0250   0A35 FF FF FF FF 
0250   0A39 FF FF FF FF 
0250   0A3D FF FF FF FF 
0250   0A41 FF FF FF FF 
0250   0A45 FF FF FF FF 
0250   0A49 FF FF FF FF 
0250   0A4D FF FF FF FF 
0250   0A51 FF FF FF FF 
0250   0A55 FF FF FF FF 
0250   0A59 FF FF FF FF 
0250   0A5D FF FF FF FF 
0250   0A61 FF FF FF FF 
0250   0A65 FF FF FF FF 
0250   0A69 FF FF FF FF 
0250   0A6D FF FF FF FF 
0250   0A71 FF FF FF FF 
0250   0A75 FF FF FF FF 
0250   0A79 FF FF FF FF 
0250   0A7D FF FF FF FF 
0250   0A81 FF FF FF FF 
0250   0A85 FF FF FF FF 
0250   0A89 FF FF FF FF 
0250   0A8D FF FF FF FF 
0250   0A91 FF FF FF FF 
0250   0A95 FF FF FF FF 
0250   0A99 FF FF FF FF 
0250   0A9D FF FF FF FF 
0250   0AA1 FF FF FF FF 
0250   0AA5 FF FF FF FF 
0250   0AA9 FF FF FF FF 
0250   0AAD FF FF FF FF 
0250   0AB1 FF FF FF FF 
0250   0AB5 FF FF FF FF 
0250   0AB9 FF FF FF FF 
0250   0ABD FF FF FF FF 
0250   0AC1 FF FF FF FF 
0250   0AC5 FF FF FF FF 
0250   0AC9 FF FF FF FF 
0250   0ACD FF FF FF FF 
0250   0AD1 FF FF FF FF 
0250   0AD5 FF FF FF FF 
0250   0AD9 FF FF FF FF 
0250   0ADD FF FF FF FF 
0250   0AE1 FF FF FF FF 
0250   0AE5 FF FF FF FF 
0250   0AE9 FF FF FF FF 
0250   0AED FF FF FF FF 
0250   0AF1 FF FF FF FF 
0250   0AF5 FF FF FF FF 
0250   0AF9 FF FF FF FF 
0250   0AFD FF FF FF FF 
0250   0B01 FF FF FF FF 
0250   0B05 FF FF FF FF 
0250   0B09 FF FF FF FF 
0250   0B0D FF FF FF FF 
0250   0B11 FF FF FF FF 
0250   0B15 FF FF FF FF 
0250   0B19 FF FF FF FF 
0250   0B1D FF FF FF FF 
0250   0B21 FF FF FF FF 
0250   0B25 FF FF FF FF 
0250   0B29 FF FF FF FF 
0250   0B2D FF FF FF FF 
0250   0B31 FF FF FF FF 
0250   0B35 FF FF FF FF 
0250   0B39 FF FF FF FF 
0250   0B3D FF FF FF FF 
0250   0B41 FF FF FF FF 
0250   0B45 FF FF FF FF 
0250   0B49 FF FF FF FF 
0250   0B4D FF FF FF FF 
0250   0B51 FF FF FF FF 
0250   0B55 FF FF FF FF 
0250   0B59 FF FF FF FF 
0250   0B5D FF FF FF FF 
0250   0B61 FF FF FF FF 
0250   0B65 FF FF FF FF 
0250   0B69 FF FF FF FF 
0250   0B6D FF FF FF FF 
0250   0B71 FF FF FF FF 
0250   0B75 FF FF FF FF 
0250   0B79 FF FF FF FF 
0250   0B7D FF FF FF FF 
0250   0B81 FF FF FF FF 
0250   0B85 FF FF FF FF 
0250   0B89 FF FF FF FF 
0250   0B8D FF FF FF FF 
0250   0B91 FF FF FF FF 
0250   0B95 FF FF FF FF 
0250   0B99 FF FF FF FF 
0250   0B9D FF FF FF FF 
0250   0BA1 FF FF FF FF 
0250   0BA5 FF FF FF FF 
0250   0BA9 FF FF FF FF 
0250   0BAD FF FF FF FF 
0250   0BB1 FF FF FF FF 
0250   0BB5 FF FF FF FF 
0250   0BB9 FF FF FF FF 
0250   0BBD FF FF FF FF 
0250   0BC1 FF FF FF FF 
0250   0BC5 FF FF FF FF 
0250   0BC9 FF FF FF FF 
0250   0BCD FF FF FF FF 
0250   0BD1 FF FF FF FF 
0250   0BD5 FF FF FF FF 
0250   0BD9 FF FF FF FF 
0250   0BDD FF FF FF FF 
0250   0BE1 FF FF FF FF 
0250   0BE5 FF FF FF FF 
0250   0BE9 FF FF FF FF 
0250   0BED FF FF FF FF 
0250   0BF1 FF FF FF FF 
0250   0BF5 FF FF FF FF 
0250   0BF9 FF FF FF FF 
0250   0BFD FF FF FF FF 
0250   0C01 FF FF FF FF 
0250   0C05 FF FF FF FF 
0250   0C09 FF FF FF FF 
0250   0C0D FF FF FF FF 
0250   0C11 FF FF FF FF 
0250   0C15 FF FF FF FF 
0250   0C19 FF FF FF FF 
0250   0C1D FF FF FF FF 
0250   0C21 FF FF FF FF 
0250   0C25 FF FF FF FF 
0250   0C29 FF FF FF FF 
0250   0C2D FF FF FF FF 
0250   0C31 FF FF FF FF 
0250   0C35 FF FF FF FF 
0250   0C39 FF FF FF FF 
0250   0C3D FF FF FF FF 
0250   0C41 FF FF FF FF 
0250   0C45 FF FF FF FF 
0250   0C49 FF FF FF FF 
0250   0C4D FF FF FF FF 
0250   0C51 FF FF FF FF 
0250   0C55 FF FF FF FF 
0250   0C59 FF FF FF FF 
0250   0C5D FF FF FF FF 
0250   0C61 FF FF FF FF 
0250   0C65 FF FF FF FF 
0250   0C69 FF FF FF FF 
0250   0C6D FF FF FF FF 
0250   0C71 FF FF FF FF 
0250   0C75 FF FF FF FF 
0250   0C79 FF FF FF FF 
0250   0C7D FF FF FF FF 
0250   0C81 FF FF FF FF 
0250   0C85 FF FF FF FF 
0250   0C89 FF FF FF FF 
0250   0C8D FF FF FF FF 
0250   0C91 FF FF FF FF 
0250   0C95 FF FF FF FF 
0250   0C99 FF FF FF FF 
0250   0C9D FF FF FF FF 
0250   0CA1 FF FF FF FF 
0250   0CA5 FF FF FF FF 
0250   0CA9 FF FF FF FF 
0250   0CAD FF FF FF FF 
0250   0CB1 FF FF FF FF 
0250   0CB5 FF FF FF FF 
0250   0CB9 FF FF FF FF 
0250   0CBD FF FF FF FF 
0250   0CC1 FF FF FF FF 
0250   0CC5 FF FF FF FF 
0250   0CC9 FF FF FF FF 
0250   0CCD FF FF FF FF 
0250   0CD1 FF FF FF FF 
0250   0CD5 FF FF FF FF 
0250   0CD9 FF FF FF FF 
0250   0CDD FF FF FF FF 
0250   0CE1 FF FF FF FF 
0250   0CE5 FF FF FF FF 
0250   0CE9 FF FF FF FF 
0250   0CED FF FF FF FF 
0250   0CF1 FF FF FF FF 
0250   0CF5 FF FF FF FF 
0250   0CF9 FF FF FF FF 
0250   0CFD FF FF FF FF 
0250   0D01 FF FF FF FF 
0250   0D05 FF FF FF FF 
0250   0D09 FF FF FF FF 
0250   0D0D FF FF FF FF 
0250   0D11 FF FF FF FF 
0250   0D15 FF FF FF FF 
0250   0D19 FF FF FF FF 
0250   0D1D FF FF FF FF 
0250   0D21 FF FF FF FF 
0250   0D25 FF FF FF FF 
0250   0D29 FF FF FF FF 
0250   0D2D FF FF FF FF 
0250   0D31 FF FF FF FF 
0250   0D35 FF FF FF FF 
0250   0D39 FF FF FF FF 
0250   0D3D FF FF FF FF 
0250   0D41 FF FF FF FF 
0250   0D45 FF FF FF FF 
0250   0D49 FF FF FF FF 
0250   0D4D FF FF FF FF 
0250   0D51 FF FF FF FF 
0250   0D55 FF FF FF FF 
0250   0D59 FF FF FF FF 
0250   0D5D FF FF FF FF 
0250   0D61 FF FF FF FF 
0250   0D65 FF FF FF FF 
0250   0D69 FF FF FF FF 
0250   0D6D FF FF FF FF 
0250   0D71 FF FF FF FF 
0250   0D75 FF FF FF FF 
0250   0D79 FF FF FF FF 
0250   0D7D FF FF FF FF 
0250   0D81 FF FF FF FF 
0250   0D85 FF FF FF FF 
0250   0D89 FF FF FF FF 
0250   0D8D FF FF FF FF 
0250   0D91 FF FF FF FF 
0250   0D95 FF FF FF FF 
0250   0D99 FF FF FF FF 
0250   0D9D FF FF FF FF 
0250   0DA1 FF FF FF FF 
0250   0DA5 FF FF FF FF 
0250   0DA9 FF FF FF FF 
0250   0DAD FF FF FF FF 
0250   0DB1 FF FF FF FF 
0250   0DB5 FF FF FF FF 
0250   0DB9 FF FF FF FF 
0250   0DBD FF FF FF FF 
0250   0DC1 FF FF FF FF 
0250   0DC5 FF FF FF FF 
0250   0DC9 FF FF FF FF 
0250   0DCD FF FF FF FF 
0250   0DD1 FF FF FF FF 
0250   0DD5 FF FF FF FF 
0250   0DD9 FF FF FF FF 
0250   0DDD FF FF FF FF 
0250   0DE1 FF FF FF FF 
0250   0DE5 FF FF FF FF 
0250   0DE9 FF FF FF FF 
0250   0DED FF FF FF FF 
0250   0DF1 FF FF FF FF 
0250   0DF5 FF FF FF FF 
0250   0DF9 FF FF FF FF 
0250   0DFD FF FF FF FF 
0250   0E01 FF FF FF FF 
0250   0E05 FF FF FF FF 
0250   0E09 FF FF FF FF 
0250   0E0D FF FF FF FF 
0250   0E11 FF FF FF FF 
0250   0E15 FF FF FF FF 
0250   0E19 FF FF FF FF 
0250   0E1D FF FF FF FF 
0250   0E21 FF FF FF FF 
0250   0E25 FF FF FF FF 
0250   0E29 FF FF FF FF 
0250   0E2D FF FF FF FF 
0250   0E31 FF FF FF FF 
0250   0E35 FF FF FF FF 
0250   0E39 FF FF FF FF 
0250   0E3D FF FF FF FF 
0250   0E41 FF FF FF FF 
0250   0E45 FF FF FF FF 
0250   0E49 FF FF FF FF 
0250   0E4D FF FF FF FF 
0250   0E51 FF FF FF FF 
0250   0E55 FF FF FF FF 
0250   0E59 FF FF FF FF 
0250   0E5D FF FF FF FF 
0250   0E61 FF FF FF FF 
0250   0E65 FF FF FF FF 
0250   0E69 FF FF FF FF 
0250   0E6D FF FF FF FF 
0250   0E71 FF FF FF FF 
0250   0E75 FF FF FF FF 
0250   0E79 FF FF FF FF 
0250   0E7D FF FF FF FF 
0250   0E81 FF FF FF FF 
0250   0E85 FF FF FF FF 
0250   0E89 FF FF FF FF 
0250   0E8D FF FF FF FF 
0250   0E91 FF FF FF FF 
0250   0E95 FF FF FF FF 
0250   0E99 FF FF FF FF 
0250   0E9D FF FF FF FF 
0250   0EA1 FF FF FF FF 
0250   0EA5 FF FF FF FF 
0250   0EA9 FF FF FF FF 
0250   0EAD FF FF FF FF 
0250   0EB1 FF FF FF FF 
0250   0EB5 FF FF FF FF 
0250   0EB9 FF FF FF FF 
0250   0EBD FF FF FF FF 
0250   0EC1 FF FF FF FF 
0250   0EC5 FF FF FF FF 
0250   0EC9 FF FF FF FF 
0250   0ECD FF FF FF FF 
0250   0ED1 FF FF FF FF 
0250   0ED5 FF FF FF FF 
0250   0ED9 FF FF FF FF 
0250   0EDD FF FF FF FF 
0250   0EE1 FF FF FF FF 
0250   0EE5 FF FF FF FF 
0250   0EE9 FF FF FF FF 
0250   0EED FF FF FF FF 
0250   0EF1 FF FF FF FF 
0250   0EF5 FF FF FF FF 
0250   0EF9 FF FF FF FF 
0250   0EFD FF FF FF FF 
0250   0F01 FF FF FF FF 
0250   0F05 FF FF FF FF 
0250   0F09 FF FF FF FF 
0250   0F0D FF FF FF FF 
0250   0F11 FF FF FF FF 
0250   0F15 FF FF FF FF 
0250   0F19 FF FF FF FF 
0250   0F1D FF FF FF FF 
0250   0F21 FF FF FF FF 
0250   0F25 FF FF FF FF 
0250   0F29 FF FF FF FF 
0250   0F2D FF FF FF FF 
0250   0F31 FF FF FF FF 
0250   0F35 FF FF FF FF 
0250   0F39 FF FF FF FF 
0250   0F3D FF FF FF FF 
0250   0F41 FF FF FF FF 
0250   0F45 FF FF FF FF 
0250   0F49 FF FF FF FF 
0250   0F4D FF FF FF FF 
0250   0F51 FF FF FF FF 
0250   0F55 FF FF FF FF 
0250   0F59 FF FF FF FF 
0250   0F5D FF FF FF FF 
0250   0F61 FF FF FF FF 
0250   0F65 FF FF FF FF 
0250   0F69 FF FF FF FF 
0250   0F6D FF FF FF FF 
0250   0F71 FF FF FF FF 
0250   0F75 FF FF FF FF 
0250   0F79 FF FF FF FF 
0250   0F7D FF FF FF FF 
0250   0F81 FF FF FF FF 
0250   0F85 FF FF FF FF 
0250   0F89 FF FF FF FF 
0250   0F8D FF FF FF FF 
0250   0F91 FF FF FF FF 
0250   0F95 FF FF FF FF 
0250   0F99 FF FF FF FF 
0250   0F9D FF FF FF FF 
0250   0FA1 FF FF FF FF 
0250   0FA5 FF FF FF FF 
0250   0FA9 FF FF FF FF 
0250   0FAD FF FF FF FF 
0250   0FB1 FF FF FF FF 
0250   0FB5 FF FF FF FF 
0250   0FB9 FF FF FF FF 
0250   0FBD FF FF FF FF 
0250   0FC1 FF FF FF FF 
0250   0FC5 FF FF FF FF 
0250   0FC9 FF FF FF FF 
0250   0FCD FF FF FF FF 
0250   0FD1 FF FF FF FF 
0250   0FD5 FF FF FF FF 
0250   0FD9 FF FF FF FF 
0250   0FDD FF FF FF FF 
0250   0FE1 FF FF FF FF 
0250   0FE5 FF FF FF FF 
0250   0FE9 FF FF FF FF 
0250   0FED FF FF FF FF 
0250   0FF1 FF FF FF FF 
0250   0FF5 FF FF FF FF 
0250   0FF9 FF FF FF FF 
0250   0FFD FF FF FF 
0251   1000             ;
0252   1000             ;==================================================================================================
0253   1000             ;   FUNCTION DISPATCHING
0254   1000             ;==================================================================================================
0255   1000             ;
0256   1000             	.FILL	$1000 - $,$FF
0257   1000             	; SCSI TARGET MODE OPERATION (PRESS A KEY TO EXIT)
0258   1000 CD 45 10    	CALL	S2I_DOIT		; CALL FUNCTION EXECUTOR
0259   1003 9B 10       	.DW	S2I_RUN			; TOP OF STACK POINTS TO FUNC ADDRESS
0260   1005             ;
0261   1005 FF FF FF FF 	.FILL	$1010 - $,$FF
0261   1009 FF FF FF FF 
0261   100D FF FF FF 
0262   1010             	; ZERO THE IDE DEVICE (FIRST 256 BLOCKS)
0263   1010 CD 45 10    	CALL	S2I_DOIT		; CALL FUNCTION EXECUTOR
0264   1013 BA 15       	.DW	S2I_ZERO		; TOP OF STACK POINTS TO FUNC ADDRESS
0265   1015             ;
0266   1015 FF FF FF FF 	.FILL	$1020 - $,$FF
0266   1019 FF FF FF FF 
0266   101D FF FF FF 
0267   1020             	; READ A BLOCK OF DATA INTO BUFFER
0268   1020 CD 45 10    	CALL	S2I_DOIT		; CALL FUNCTION EXECUTOR
0269   1023 E7 15       	.DW	S2I_RDBLK		; TOP OF STACK POINTS TO FUNC ADDRESS
0270   1025             ;
0271   1025 FF FF FF FF 	.FILL	$1030 - $,$FF
0271   1029 FF FF FF FF 
0271   102D FF FF FF 
0272   1030             	; WRITE A BLOCK OF DATA INTO BUFFER
0273   1030 CD 45 10    	CALL	S2I_DOIT		; CALL FUNCTION EXECUTOR
0274   1033 FB 15       	.DW	S2I_WRBLK		; TOP OF STACK POINTS TO FUNC ADDRESS
0275   1035             ;
0276   1035 FF FF FF FF 	.FILL	$1040 - $,$FF
0276   1039 FF FF FF FF 
0276   103D FF FF FF 
0277   1040             	; DISPLAY BUFFER DATA
0278   1040 CD 45 10    	CALL	S2I_DOIT		; CALL FUNCTION EXECUTOR
0279   1043 15 16       	.DW	S2I_DUMP		; TOP OF STACK POINTS TO FUNC ADDRESS
0280   1045             ;
0281   1045             S2I_DOIT:
0282   1045             ;
0283   1045             	; BASIC INITIALIZATION
0284   1045 F3          	DI				; NO INTERRUPTS PLEASE
0285   1046 ED 56       	IM	1			; INTERRUPT MODE 1
0286   1048             ;
0287   1048             	; GET ROUTINE ADDRESS POINTED TO BY TOP OF STACK
0288   1048 E1          	POP	HL			; GET THE FUNCTION ADDRESS POINTER
0289   1049 7E          	LD	A,(HL)			; DEREFERENCE
0290   104A 23          	INC	HL			; "
0291   104B 66          	LD	H,(HL)			; "
0292   104C 6F          	LD	L,A			; "
0293   104D             
0294   104D             	; SETUP USER STACK AT TOP OF MEMORY
0295   104D 31 00 00    	LD	SP,0			; STACK AT TOP OF MEMORY
0296   1050             ;;
0297   1050             ;	; RUN THE FUNCTION
0298   1050             ;	CALL	JPHL			; CALL FUNCTION IN HL
0299   1050             ;;
0300   1050             ;	; RETURN TO MONITOR
0301   1050             ;	CALL	NEWLINE			; SPACER
0302   1050             ;	CALL	NEWLINE			; SPACER
0303   1050             ;	RST	30			; INVOKE MONITOR
0304   1050             ;
0305   1050 E9          	JP	(HL)
0306   1051             ;
0307   1051             ;
0308   1051             ;==================================================================================================
0309   1051             ;   BUS RESET INTERRUPT HANDLER
0310   1051             ;==================================================================================================
0311   1051             ;
0312   1051             S2I_BUSRESINT:
0313   1051 18 23       	JR	S2I_BUSRESINT1
0314   1053             
0315   1053 F5          	PUSH	AF
0316   1054 C5          	PUSH	BC
0317   1055 D5          	PUSH	DE
0318   1056 E5          	PUSH	HL
0319   1057             ;
0320   1057             #IF (S2I_TRACE >= 2)
0321   1057 11 B9 19    	LD	DE,STR_BUSRESINT	; ANNOUNCE BUS RESET INT
0322   105A 3A 09 90    	LD	A,(S2I_DBGLVL)
0323   105D FE 02       	CP	2
0324   105F D4 A1 17    	CALL	NC,WRITESTR
0325   1062             #ENDIF
0326   1062             ;
0327   1062             #IF (S2I_TRACE >= 2)
0328   1062 3A 09 90    	LD	A,(S2I_DBGLVL)
0329   1065 FE 02       	CP	2
0330   1067 D4 6A 16    	CALL	NC,S2I_SNAP		; DUMP A SNAPSHOT OF REGISTERS!
0331   106A             #ENDIF
0332   106A             ;
0333   106A DB 8C       	IN	A,(S2I_CBS)		; GET CURRENT BUS STATUS
0334   106C CB 4F       	BIT	1,A			; ISOLATE BIT 1
0335   106E CA 76 10    	JP	Z,S2I_BUSRESINT1	; NOT SET, ASSUME BUS RESET
0336   1071             ;
0337   1071 E1          	POP	HL
0338   1072 D1          	POP	DE
0339   1073 C1          	POP	BC
0340   1074 F1          	POP	AF
0341   1075 C9          	RET				; AND RETURN W/ INTS DISABLED
0342   1076             ;
0343   1076             S2I_BUSRESINT1:
0344   1076             ;
0345   1076             #IF (S2I_TRACE >= 2)
0346   1076 11 B9 19    	LD	DE,STR_BUSRESINT	; ANNOUNCE BUS RESET INT
0347   1079 3A 09 90    	LD	A,(S2I_DBGLVL)
0348   107C FE 02       	CP	2
0349   107E D4 A1 17    	CALL	NC,WRITESTR
0350   1081             #ENDIF
0351   1081             ;
0352   1081             	;DI				; MAKE SURE INTS DISABLED FOR NOW
0353   1081 31 00 00    	LD	SP,0			; RESET STACK (NO RETURN FROM INT)
0354   1084             ;
0355   1084 DB 8F       	IN	A,(S2I_RPI)		; CLEAR INTERRUPT
0356   1086             ;
0357   1086 C3 59 11    	JP	S2I_RUN2		; RE-ENTER RUN LOOP
0358   1089             ;
0359   1089             S2I_BUSRESET:
0360   1089 F3          	DI				; MAKE SURE INTS DISABLED FOR NOW
0361   108A 31 00 00    	LD	SP,0			; RESET STACK (NO RETURN FROM INT)
0362   108D             #IF (S2I_TRACE >= 2)
0363   108D 11 A3 19    	LD	DE,STR_BUSRESET		; ANNOUNCE BUS RESET
0364   1090 3A 09 90    	LD	A,(S2I_DBGLVL)
0365   1093 FE 02       	CP	2
0366   1095 D4 A1 17    	CALL	NC,WRITESTR
0367   1098             #ENDIF
0368   1098 C3 59 11    	JP	S2I_RUN2		; RE-ENTER RUN LOOP
0369   109B             ;
0370   109B             ;==================================================================================================
0371   109B             ;   CONTROL PROGRAM STARTS HERE
0372   109B             ;==================================================================================================
0373   109B             ;
0374   109B             S2I_RUN:
0375   109B             ;
0376   109B 11 C7 18    	LD	DE,STR_BANNER		; POINT TO BANNER
0377   109E CD A1 17    	CALL	WRITESTR		; DISPLAY IT
0378   10A1             ;
0379   10A1 DB 84       	IN	A,($84)			; READ CONFIG BYTE
0380   10A3 DB 84       	IN	A,($84)			; ... TWICE TO HANDLE OLDER HARDWARE
0381   10A5 32 06 90    	LD	(S2I_CONFIG),A		; SAVE IT
0382   10A8             ;
0383   10A8 11 42 1A    	LD	DE,STR_CONFIG		; POINT TO CONFIG BYTE ANNONCEMENT
0384   10AB CD A1 17    	CALL	WRITESTR		; DISPLAY
0385   10AE 3A 06 90    	LD	A,(S2I_CONFIG)		; LOAD CONFIG BYTE VALUE
0386   10B1 CD 51 17    	CALL	PRTHEXBYTE		; DISPLAY IT
0387   10B4             ;
0388   10B4 11 A4 1A    	LD	DE,STR_DBGLVL		; DEBUG LEVEL PREFIX STRING
0389   10B7 CD A1 17    	CALL	WRITESTR		; DISPLAY
0390   10BA 3A 06 90    	LD	A,(S2I_CONFIG)		; LOAD CONFIG BYTE VALUE
0391   10BD 07          	RLCA				; ROTATE BEBUG BIT TO BIT 0
0392   10BE 07          	RLCA				; ...
0393   10BF E6 01       	AND	%00000001		; ISOLATE IT
0394   10C1 3C          	INC	A			; INCREMENT SO IT IS EITHER 1 OR 2
0395   10C2 32 09 90    	LD	(S2I_DBGLVL),A		; SAVE IT
0396   10C5 CD 51 17    	CALL	PRTHEXBYTE		; DISPLAY IT
0397   10C8             ;
0398   10C8 3A 06 90    	LD	A,(S2I_CONFIG)		; LOAD CONFIG BYTE VALUE
0399   10CB E6 07       	AND	%00000111		; ISOLATE SCSI DEVICE ID BITS
0400   10CD 32 04 90    	LD	(S2I_SID),A		; SAVE SCSI ID
0401   10D0 3A 06 90    	LD	A,(S2I_CONFIG)		; LOAD CONFIG BYTE VALUE
0402   10D3 47          	LD	B,A			; MOVE TO B
0403   10D4 3E 02       	LD	A,2			; ASSUME 512 BYTE BLOCK SIZE
0404   10D6 CB 58       	BIT	3,B			; SAMPLE BIT 3
0405   10D8 28 02       	JR	Z,S2I_RUN0		; YES, DO IT
0406   10DA 3E 01       	LD	A,1			; OTHERWISE 256 BYTE BLOCK SIZE
0407   10DC             S2I_RUN0:
0408   10DC 32 07 90    	LD	(S2I_BLKSIZE),A		; SAVE BLOCKSIZE
0409   10DF             ;
0410   10DF 3A 06 90    	LD	A,(S2I_CONFIG)		; LOAD CONFIG BYTE VALUE
0411   10E2 47          	LD	B,A			; MOVE TO B
0412   10E3 3E 40       	LD	A,DIODEV_PPIDE		; ASSUME IDE DEVICE
0413   10E5 CB 78       	BIT	7,B			; SAMPLE DEVICE SELECTION BIT
0414   10E7 28 02       	JR	Z,S2I_RUN00		; IF 0, IT IS IDE, SKIP AHEAD
0415   10E9 3E 50       	LD	A,DIODEV_SD		; MUST BE SD DEVICE
0416   10EB             S2I_RUN00:
0417   10EB 32 08 90    	LD	(S2I_DEVICE),A		; SAVE DEVICE SELECTION
0418   10EE             ;
0419   10EE 11 B4 1A    	LD	DE,STR_XFRMODE		; POINT TO TRANSFER MODE ANNOUNCEMENT
0420   10F1 CD A1 17    	CALL	WRITESTR		; DISPLAY
0421   10F4             ;
0422   10F4 11 CB 1A    	LD	DE,STR_DEVIDE		; POINT TO IDE DEVICE ANNOUNCEMENT
0423   10F7 3A 08 90    	LD	A,(S2I_DEVICE)		; GET DEVICE ID
0424   10FA FE 40       	CP	DIODEV_PPIDE		; IDE?
0425   10FC 28 0A       	JR	Z,S2I_RUN000		; DISPLAY IT
0426   10FE 11 E8 1A    	LD	DE,STR_DEVSD		; POINT TO SD DEVICE ANNUNCEMENT
0427   1101 FE 50       	CP	DIODEV_SD		; SD?
0428   1103 28 03       	JR	Z,S2I_RUN000		; DISPLAY IT
0429   1105 11 09 1B    	LD	DE,STR_DEVUNK		; UNKNOWN
0430   1108             S2I_RUN000:
0431   1108 CD A1 17    	CALL	WRITESTR		; DISPLAY
0432   110B             ;
0433   110B 11 53 1A    	LD	DE,STR_CONFIG1		; POINT TO CONFIG ANNOUNCEMENT, PART 1
0434   110E CD A1 17    	CALL	WRITESTR		; DISPLAY IT
0435   1111 3A 04 90    	LD	A,(S2I_SID)		; LOAD THE SCSI ID
0436   1114 CD 51 17    	CALL	PRTHEXBYTE		; DISPLAY IT
0437   1117 11 5E 1A    	LD	DE,STR_CONFIG2		; POINT TO CONFIG ANNOUNCEMENT, PART 2
0438   111A CD A1 17    	CALL	WRITESTR		; DISPLAY IT
0439   111D 3A 07 90    	LD	A,(S2I_BLKSIZE)		; GET BLOCKSIZE
0440   1120 11 88 1A    	LD	DE,STR_BLK512		; ASSUME 512
0441   1123 FE 02       	CP	2			; CHECK FOR 512 (VALUE = 2)
0442   1125 28 0C       	JR	Z,S2I_RUN1		; IF SO, GO TO DISPLAY
0443   1127 11 92 1A    	LD	DE,STR_BLK256		; ASSUME 256
0444   112A FE 01       	CP	1			; CHECK FOR 256 (VALUE = 1)
0445   112C 28 05       	JR	Z,S2I_RUN1		; IF SO, GO TO DISPLAY
0446   112E 11 9C 1A    	LD	DE,STR_BLKUNK		; ASSUME UNKNOWN
0447   1131 28 00       	JR	Z,S2I_RUN1		; GO TO DISPLAY
0448   1133             S2I_RUN1:
0449   1133 CD A1 17    	CALL	WRITESTR		; DISPLAY BLOCK SIZE
0450   1136 11 6C 1A    	LD	DE,STR_CONFIG3		; POINT TO CONFIG ANNOUNCEMENT, PART 3
0451   1139 CD A1 17    	CALL	WRITESTR		; DISPLAY IT
0452   113C 3E 02       	LD	A,S2I_LUNCNT		; LOAD THE LUN COUNT
0453   113E CD 51 17    	CALL	PRTHEXBYTE		; DISPLAY IT
0454   1141 11 79 1A    	LD	DE,STR_CONFIG4		; POINT TO CONFIG ANNOUNCEMENT, PART 4
0455   1144 CD A1 17    	CALL	WRITESTR		; DISPLAY IT
0456   1147 21 00 04    	LD	HL,S2I_LUNSIZ
0457   114A CD 85 18    	CALL	PRTDEC			; DISPLAY IT
0458   114D 11 85 1A    	LD	DE,STR_CONFIG5		; POINT TO CONFIG ANNOUNCEMENT, PART 5
0459   1150 CD A1 17    	CALL	WRITESTR		; DISPLAY IT
0460   1153             ;
0461   1153             	; SET DISK BUFFER ADDRESS
0462   1153 21 1A 91    	LD	HL,S2I_DSKBUF		; ADDRESS OF DEDICATED DISK BUFFER
0463   1156 06 19       	LD	B,BF_DIOSETBUF		; HBIOS SET BUF FUNCTION
0464   1158 CF          	RST	08			; DO IT
0465   1159             ;
0466   1159             S2I_RUN2:
0467   1159             	; PRE-LOOP INITIALIZATION
0468   1159 AF          	XOR	A			; A := 0
0469   115A 32 01 90    	LD	(S2I_SENSE),A		; INITIALIZE SENSE
0470   115D             ;
0471   115D             ;===============================================================
0472   115D             ; SCSI TARGET MODE PROCESSING LOOP
0473   115D             ;===============================================================
0474   115D             ;
0475   115D             S2I_TGTPROC:
0476   115D             	; INITIALIZATION
0477   115D AF          	XOR	A			; A = 0
0478   115E 32 02 90    	LD	(S2I_STAT),A		; INITIALIZE STATUS
0479   1161 3D          	DEC	A			; A =$FF
0480   1162 32 18 91    	LD	(S2I_CBS_PRV),A		; RESET SAVED CBS
0481   1165 32 19 91    	LD	(S2I_BSR_PRV),A		; RESET SAVED BSR
0482   1168 32 03 90    	LD	(S2I_LUN),A		; INITIALIZE ACTIVE LUN ($FF SIGNIFIES INVALID)
0483   116B             ;
0484   116B CD 9D 11    	CALL	S2I_INITTGT		; INITIALIZE FOR TARGET MODE
0485   116E             #IF (S2I_TRACE >= 2)
0486   116E 11 8E 19    	LD	DE,STR_BUSFREE		; ANNOUNCE THE BUS IS FREE
0487   1171 3A 09 90    	LD	A,(S2I_DBGLVL)
0488   1174 FE 02       	CP	2
0489   1176 D4 A1 17    	CALL	NC,WRITESTR
0490   1179             #ENDIF
0491   1179             ;
0492   1179 F3          	DI
0493   117A             	;EI				; *DEBUG*
0494   117A CD AB 11    	CALL	S2I_SELECT		; WAIT FOR SELECTION OR KEY
0495   117D 20 10       	JR	NZ,S2I_TGTPROC1		; NZ = KEY PRESSED, ABORT
0496   117F FB          	EI
0497   1180 CD 46 12    	CALL	S2I_CMDPROC		; GET AND HANDLE COMMAND
0498   1183             ;
0499   1183             	; CLEAR SENSE BYTE IF COMMAND WAS SUCCESSFUL
0500   1183 3A 02 90    	LD	A,(S2I_STAT)		; GET FINAL STATUS
0501   1186 B7          	OR	A			; SET FLAGS
0502   1187 20 D4       	JR	NZ,S2I_TGTPROC		; BAD STATUS, LEAVE SENSE VALUE
0503   1189 AF          	XOR	A			; GOOD STATUS, A := 0
0504   118A 32 01 90    	LD	(S2I_SENSE),A		; SENSE := 0
0505   118D 18 CE       	JR	S2I_TGTPROC		; LOOP
0506   118F             ;	
0507   118F             S2I_TGTPROC1:	; HANDLE USER KEYSTROKE
0508   118F             ;
0509   118F FE 1B       	CP	$1B			; <ESC>?
0510   1191 20 CA       	JR	NZ,S2I_TGTPROC		; NOPE, RESTART TGT CMD PROCESSOR
0511   1193             ;
0512   1193             	; <ESC> PRESSED, CLEAN UP AND RETURN
0513   1193 CD 9D 11    	CALL	S2I_INITTGT		; FREE BUS
0514   1196             ;
0515   1196 11 0F 19    	LD	DE,STR_DONE		; ANNOUNCE WE ARE DONE
0516   1199 CD A1 17    	CALL	WRITESTR		; PRINT IT
0517   119C             ;	
0518   119C             	;RET				; DONE
0519   119C F7          	RST	30
0520   119D             ;
0521   119D             ;===============================================================
0522   119D             ; SCSI TARGET MODE INITIALIZATION
0523   119D             ;===============================================================
0524   119D             ;
0525   119D             S2I_INITTGT:
0526   119D 3E 40       	LD	A,$40			; MODE: TARGET
0527   119F D3 8A       	OUT	(S2I_MR),A		; SET MODE REGISTER
0528   11A1             ;
0529   11A1             	; CLEAR ALL SIGNALS OFF THE BUS
0530   11A1 AF          	XOR	A
0531   11A2 D3 89       	OUT	(S2I_ICR),A		; CLEAR INITIATOR COMMAND REGISTER
0532   11A4 D3 8B       	OUT	(S2I_TCR),A		; CLEAR TARGET COMMAND REGISTER
0533   11A6 D3 88       	OUT	(S2I_CDR),A		; ZEROES TO OUTPUT DATA REGISTER
0534   11A8 D3 8C       	OUT	(S2I_SER),A		; ZEROES TO SELECT ENABLE REGISTER
0535   11AA C9          	RET				; DONE
0536   11AB             
0537   11AB             #IF 1
0538   11AB             ;
0539   11AB             ;===============================================================
0540   11AB             ; SCSI SELECTION
0541   11AB             ;===============================================================
0542   11AB             ;
0543   11AB             ; SCSI TARGET SELECTION
0544   11AB             ; WAIT FOR THE INITIATOR TO SELECT US
0545   11AB             ; AND ACCEPT SELECT REQUEST BY SETTING BSY
0546   11AB             ;
0547   11AB             S2I_SELECT:
0548   11AB             #IF (S2I_TRACE >= 2)
0549   11AB 11 22 19    	LD	DE,STR_SELECT		; POINT TO ANNOUNCEMENT
0550   11AE 3A 09 90    	LD	A,(S2I_DBGLVL)
0551   11B1 FE 02       	CP	2
0552   11B3 D4 A1 17    	CALL	NC,WRITESTR
0553   11B6             #ENDIF
0554   11B6             ;
0555   11B6             	; SET BIT IN A FOR OUR SCSI ID
0556   11B6 3A 04 90    	LD	A,(S2I_SID)		; GET OUR SCSI DEVICE ID
0557   11B9 47          	LD	B,A			; B := OUR SCSI ID
0558   11BA 04          	INC	B			; WE WANT TO LOOP ONE EXTRA TIME
0559   11BB AF          	XOR	A			; A := 0
0560   11BC 37          	SCF				; SET CARRY FLAG
0561   11BD             ;
0562   11BD             S2I_SELECT0:	; LOOP TO ROTATE CF BIT INTO DESIRED SELECT BIT POSITION
0563   11BD 17          	RLA				; ROLATE LEFT BY ONE BIT
0564   11BE 10 FD       	DJNZ	S2I_SELECT0		; LOOP UNTIL DONE
0565   11C0 32 05 90    	LD	(S2I_SIDMASK),A		; SAVE DEVICE ID MASK
0566   11C3 D3 8C       	OUT	(S2I_SER),A		; SETUP SELECT ENABLE REGISTER
0567   11C5             ;
0568   11C5             S2I_SELECT1:	; ENTRY POINT FOR LOOPING, RESET INT THEN PROCEED
0569   11C5 DB 8F       	IN	A,(S2I_RPI)		; RESET INTERRUPT
0570   11C7             ;
0571   11C7             S2I_SELECT2:	; SELECT LOOP
0572   11C7             ;
0573   11C7             	; CHECK FOR A USER KEYRESS WHICH MEANS ESCAPE TO MONITOR
0574   11C7 CD 60 16    	CALL	S2I_KEYCHK		; KEY PRESSED?
0575   11CA B7          	OR	A			; SET FLAGS
0576   11CB C0          	RET	NZ			; RETURN IF KEY PRESSED
0577   11CC             ;
0578   11CC             	; CHECK FOR INT REQ WHICH MEANS A SELECT HAS OCCURRED
0579   11CC DB 8D       	IN	A,(S2I_BSR)		; GET STATUS
0580   11CE CB 67       	BIT	4,A			; CHECK BIT 4, INT REQ
0581   11D0 28 F5       	JR	Z,S2I_SELECT2		; NOPE, LOOP
0582   11D2             ;
0583   11D2             #IF (S2I_TRACE >= 2)
0584   11D2 3A 09 90    	LD	A,(S2I_DBGLVL)
0585   11D5 FE 02       	CP	2
0586   11D7 D4 6A 16    	CALL	NC,S2I_SNAP		; DUMP A SNAPSHOT OF REGISTERS!
0587   11DA             #ENDIF
0588   11DA             ;
0589   11DA             	; INT REQ IS AMBIGUOUS HERE!!! COULD ALSO MEAN A BUS RESET
0590   11DA             	; HAS OCCURRED.  BELOW IS A CHECK TO DETERMINE IF THIS
0591   11DA             	; WAS ACTUALLY A SELECT.  IF NOT, WE ASSUME A BUS RESET
0592   11DA             	; MUST HAVE BEEN TRIGGERED AND RESTART FROM SCRATCH!
0593   11DA DB 8C       	IN	A,(S2I_CBS)		; GET CURRENT BUS STATUS
0594   11DC CB 4F       	BIT	1,A			; ISOLATE BIT 1
0595   11DE CA 89 10    	JP	Z,S2I_BUSRESET		; NOT SET, BUS RESET? DO TOTAL RESTART
0596   11E1             ;
0597   11E1             	; ENSURE THAT NO MORE THAN 2 DATA BITS ARE SET (INITIATOR AND TARGET ID)
0598   11E1 DB 88       	IN	A,(S2I_CDR)		; GET THE CURRENT DATA REGISTER
0599   11E3 06 08       	LD	B,8			; INITIALIZE LOOP COUNT
0600   11E5 1E 00       	LD	E,0			; INITIALIZE BIT COUNT
0601   11E7             S2I_SELECT4:	
0602   11E7 1F          	RRA				; NEXT BIT INTO CF
0603   11E8 30 01       	JR	NC,S2I_SELECT5		; BIT NOT SET, SKIP INCREMENT
0604   11EA 1C          	INC	E			; COUNT A BIT THAT IS SET
0605   11EB             S2I_SELECT5:
0606   11EB 10 FA       	DJNZ	S2I_SELECT4		; DO ALL 8 BITS
0607   11ED 7B          	LD	A,E			; GET THE BIT COUNT
0608   11EE FE 03       	CP	3			; 3 OR MORE???
0609   11F0 30 D3       	JR	NC,S2I_SELECT1		; TOO MANY DATA BITS SET, KEEP TRYING
0610   11F2             ;
0611   11F2             	; BOGOSITY FAILSAFE: CHECK THAT OUR DATA BIT IS STILL ASSERTED
0612   11F2 DB 88       	IN	A,(S2I_CDR)		; GET THE CURRENT DATA REGISTER
0613   11F4 21 05 90    	LD	HL,S2I_SIDMASK		; POINT TO OUR SCSI ID MASK
0614   11F7 A6          	AND	(HL)			; APPLY MASK
0615   11F8 28 CB       	JR	Z,S2I_SELECT1		; OOPS, NO LONGER SET, LOOP
0616   11FA             ;
0617   11FA             	; OK, WE ARE BEING SELECTED, SET BSY
0618   11FA DB 89       	IN	A,(S2I_ICR)		; GET CURRENT ICR
0619   11FC F6 08       	OR	%00001000		; ASSERT BSY
0620   11FE D3 89       	OUT	(S2I_ICR),A		; OUTPUT
0621   1200             ;
0622   1200             S2I_SELECT6:	; WAIT FOR INITIATOR TO DEASSERT SEL
0623   1200 DB 8C       	IN	A,(S2I_CBS)		; GET BUS STATUS
0624   1202 E6 02       	AND	%00000010		; ISOLATE SEL
0625   1204 20 FA       	JR	NZ,S2I_SELECT6		; STILL SET, LOOP
0626   1206             ;
0627   1206             	; CLEAR THE SELECT ENABLE REGISTER & CLEAR INTERRUPTS
0628   1206 AF          	XOR	A			; A := 0
0629   1207 D3 8C       	OUT	(S2I_SER),A		; CLEAR SELECT ENABLE REGISTER
0630   1209 DB 8F       	IN	A,(S2I_RPI)		; RESET INTERRUPT???
0631   120B             ;	
0632   120B             	; SELECTION COMPLETE!
0633   120B AF          	XOR	A			; A=0
0634   120C C9          	RET				; DONE
0635   120D             #ENDIF
0636   120D~            #IF 0
0637   120D~            ;
0638   120D~            ;===============================================================
0639   120D~            ; SCSI SELECTION
0640   120D~            ;===============================================================
0641   120D~            ;
0642   120D~            ; SCSI TARGET SELECTION
0643   120D~            ; WAIT FOR THE INITIATOR TO SELECT US
0644   120D~            ; AND ACCEPT SELECT REQUEST BY SETTING BSY
0645   120D~            ;
0646   120D~            S2I_SELECT:
0647   120D~            #IF (S2I_TRACE >= 2)
0648   120D~            	LD	DE,STR_SELECT
0649   120D~            	LD	A,(S2I_DBGLVL)
0650   120D~            	CP	2
0651   120D~            	CALL	NC,WRITESTR
0652   120D~            #ENDIF
0653   120D~            ;
0654   120D~            S2I_SELECT0:
0655   120D~            	CALL	S2I_KEYCHK		; KEY PRESSED?
0656   120D~            	OR	A			; SET FLAGS
0657   120D~            	RET	NZ			; RETURN IF KEY PRESSED
0658   120D~            ;
0659   120D~            	; GET CURRENT BUS STATUS
0660   120D~            	IN	A,(S2I_CBS)		; GET CURRENT BUS STATUS
0661   120D~            	LD	B,A			; SAVE IT IN B
0662   120D~            	IN	A,(S2I_BSR)		; GET BUS STATUS
0663   120D~            	LD	C,A			; SAVE IT IN C
0664   120D~            	IN	A,(S2I_CDR)		; GET CURRENT DATA VALUE
0665   120D~            	LD	D,A			; SAVE IT IN D
0666   120D~            ;
0667   120D~            	; SEE IF BUS STATE CHANGED
0668   120D~            	LD	A,(S2I_CBS_PRV)		; GET PREVIOUS CBS
0669   120D~            	CP	B			; COMPARE TO CURRENT
0670   120D~            	JR	NZ,S2I_SELECT1		; IF CHANGE, PRINT
0671   120D~            	LD	A,(S2I_BSR_PRV)		; GET PREVIOUS BSR
0672   120D~            	CP	C			; COMPARE TO CURRENT
0673   120D~            	JR	NZ,S2I_SELECT1		; IF CHANGE, PRINT
0674   120D~            	JR	S2I_SELECT2		; NO CHANGE BYPASS PRINTING
0675   120D~            ;
0676   120D~            S2I_SELECT1:	; PRINT CURRENT BUS STATUS
0677   120D~            	LD	A,B			; RECOVER CBS
0678   120D~            	LD	(S2I_CBS_PRV),A		; SAVE IT AS PREVIOUS VALUE
0679   120D~            	CALL	PRTHEXBYTE		; PRINT IT
0680   120D~            	CALL	PC_COLON		; SEPARATOR
0681   120D~            	LD	A,C			; RECOVER BSR
0682   120D~            	LD	(S2I_BSR_PRV),A		; SAVE IT AS PREVIOUS VALUE
0683   120D~            	CALL	PRTHEXBYTE		; PRINT IT
0684   120D~            	CALL	PC_COLON		; SEPARATOR
0685   120D~            	LD	A,D			; RECOVER CDR
0686   120D~            	CALL	PRTHEXBYTE		; PRINT IT
0687   120D~            	CALL	PC_SPACE		; SEPARATOR
0688   120D~            ;
0689   120D~            S2I_SELECT2:	; TEST FOR VALID SELECT PHASE
0690   120D~            	LD	A,B			; GET BUS STATUS
0691   120D~            	AND	%11100110		; BITS RES, BSY, REQ, MSG, C/D, I/O, SEL, DBP
0692   120D~            	CP	%00000010		;      0,   0,   0,   X,   X,   0,   1,   X
0693   120D~            	JR	NZ,S2I_SELECT0		; NOPE, LOOP
0694   120D~            ;
0695   120D~            S2I_SELECT3:	; SELECT ACTIVE, TEST FOR OUR ID
0696   120D~            	LD	A,D			; NOW GET CURRENT DATA VALUE
0697   120D~            	BIT	0,A			; IS OUR ID BIT SET?
0698   120D~            	JR	Z,S2I_SELECT0		; NOPE, LOOP
0699   120D~            ;
0700   120D~            	; ENSURE THAT NO MORE THAN 2 DATA BITS TO BE SET (INITIATOR AND TARGET ID)
0701   120D~            	LD	A,D			; MAKE SURE WE HAVE CURRENT DATA VALUE
0702   120D~            	LD	B,8			; INITIALIZE LOOP COUNT
0703   120D~            	LD	C,0			; INITIALIZE BIT COUNT
0704   120D~            S2I_SELECT4:	
0705   120D~            	RRA				; NEXT BIT INTO CF
0706   120D~            	JR	NC,S2I_SELECT5		; BIT NOT SET, SKIP INCREMENT
0707   120D~            	INC	E			; COUNT A BIT THAT IS SET
0708   120D~            S2I_SELECT5:
0709   120D~            	DJNZ	S2I_SELECT4		; DO ALL 8 BITS
0710   120D~            	LD	A,E			; GET THE BIT COUNT
0711   120D~            	CP	3			; 3 OR MORE???
0712   120D~            	JR	NC,S2I_SELECT0		; TOO MANY DATA BITS SET, KEEP TRYING
0713   120D~            ;
0714   120D~            	; OK, WE ARE BEING SELECTED, SET BSY
0715   120D~            	IN	A,(S2I_ICR)		; GET CURRENT ICR
0716   120D~            	OR	%00001000		; ASSERT BSY
0717   120D~            	OUT	(S2I_ICR),A		; OUTPUT
0718   120D~            ;
0719   120D~            S2I_SELECT6:	; WAIT FOR INITIATOR TO DEASSERT SEL
0720   120D~            	IN	A,(S2I_CBS)		; GET BUS STATUS
0721   120D~            	AND	%00000010		; ISOLATE SEL
0722   120D~            	JR	NZ,S2I_SELECT6		; STILL SET, LOOP
0723   120D~            ;
0724   120D~            	; SELECTION PHASE COMPLETE!
0725   120D~            	XOR	A			; A=0
0726   120D~            	RET				; DONE
0727   120D             #ENDIF
0728   120D             ;
0729   120D             ;===============================================================
0730   120D             ; SCSI MESSAGE PROCESSOR
0731   120D             ;===============================================================
0732   120D             ;
0733   120D             ; CHECK FOR INITIATOR MESSAGES AND HANDLE AS APPROPRIATE
0734   120D             ;
0735   120D             S2I_MSGPROC:	; CHECK FOR INITIATOR MESSAGE PENDING (ATN ASSERTED)
0736   120D             ;
0737   120D F5          	PUSH	AF
0738   120E             S2I_MSGPROCX1:
0739   120E DB 8D       	IN	A,(S2I_BSR)		; GET BSR VALUE
0740   1210 E6 02       	AND	%00000010		; ISOLATE ATN
0741   1212 28 05       	JR	Z,S2I_MSGPROCX2		; NOTHING PENDING, DONE
0742   1214 CD 1B 12    	CALL	S2I_MSGPROC3		; ATTENTION ACTIVE, HANDLE IT
0743   1217 18 F5       	JR	S2I_MSGPROCX1		; LOOP AS NEEDED
0744   1219             ;
0745   1219             S2I_MSGPROCX2:
0746   1219 F1          	POP	AF
0747   121A C9          	RET
0748   121B             ;
0749   121B             S2I_MSGPROC3:	; HANDLE ACTIVE ATTENTION
0750   121B 3A 00 90    	LD	A,(S2I_MSG)		; GET EXISTING MESSAGE BYTE
0751   121E F5          	PUSH	AF			; SAVE IT
0752   121F             ;
0753   121F C5          	PUSH	BC			; SAVE ALL OTHER REGISTERS
0754   1220 D5          	PUSH	DE
0755   1221 E5          	PUSH	HL
0756   1222             ;
0757   1222             	; GET THE MESSAGE
0758   1222 CD 90 14    	CALL	S2I_MSGOUT		; RUN MESSAGE OUT PHASE
0759   1225             ;
0760   1225             	; PREP STACK SO THAT ALL HANDLERS RETURN TO MESSAGE PROCESSOR
0761   1225 21 38 12    	LD	HL,S2I_MSGPROC4		; ADDRESS FOR RETURN FROM HANDLER
0762   1228 E5          	PUSH	HL			; PUSH IT ON STACK
0763   1229             ;
0764   1229             	; HANDLE KNOWN MESSAGE CODES
0765   1229 3A 00 90    	LD	A,(S2I_MSG)		; RETRIEVE THE MESSAGE BYTE
0766   122C CB 7F       	BIT	7,A			; IDENTIFY ($80-$FF IS IDENTIFY MESSAGE)
0767   122E 20 10       	JR	NZ,S2I_MSG_IDENTIFY	; HANDLE IT
0768   1230             ;
0769   1230             	; HANDLE UNKNOWN MESSAGE
0770   1230 3E 07       	LD	A,$07			; MESSAGE REJECT
0771   1232 32 00 90    	LD	(S2I_MSG),A		; PUT IN MSG BUFFER
0772   1235 C3 A8 14    	JP	S2I_MSGIN		; RUN MESSAGE IN PHASE
0773   1238             ;
0774   1238             S2I_MSGPROC4:
0775   1238 E1          	POP	HL
0776   1239 D1          	POP	DE
0777   123A C1          	POP	BC
0778   123B F1          	POP	AF
0779   123C 32 00 90    	LD	(S2I_MSG),A
0780   123F C9          	RET
0781   1240             ;
0782   1240             ; HANDLE IDENTIFY MESSAGE
0783   1240             ;
0784   1240             S2I_MSG_IDENTIFY:
0785   1240 E6 07       	AND	%00000111		; ISOLATE LUN BITS
0786   1242 32 03 90    	LD	(S2I_LUN),A		; SAVE ACTIVE LUN
0787   1245 C9          	RET
0788   1246             ;
0789   1246             ;===============================================================
0790   1246             ; SCSI COMMAND PROCESSOR
0791   1246             ;===============================================================
0792   1246             ;
0793   1246             ; GET AND RESPOND TO COMMAND FROM INITIATOR
0794   1246             ;
0795   1246             S2I_CMDPROC:
0796   1246 CD 0D 12    	CALL	S2I_MSGPROC		; CHECK/PROCESS HOST MESSAGES
0797   1249 CD C0 14    	CALL	S2I_CMD		; GET THE COMMAND
0798   124C CD 0D 12    	CALL	S2I_MSGPROC		; CHECK/PROCESS HOST MESSAGES
0799   124F             ;
0800   124F             	; CHECK FOR UNIT INFO
0801   124F 3A 03 90    	LD	A,(S2I_LUN)		; GET CURRENT LUN VALUE
0802   1252 FE FF       	CP	$FF			; IS IT STILL NOT SET?
0803   1254 20 0B       	JR	NZ,S2I_CMDPROC1		; IT IS SET, BYPASS
0804   1256 3A 0C 90    	LD	A,(S2I_CMDBUF + 1)	; GET SECOND BYTE OF CMD DATA
0805   1259 07          	RLCA				; SHIFT LUN BITS
0806   125A 07          	RLCA				; INTO
0807   125B 07          	RLCA				; POSTION
0808   125C E6 07       	AND	%00000111		; AND ISOLATE THEM
0809   125E 32 03 90    	LD	(S2I_LUN),A		; SAVE ACTIVE LUN
0810   1261             ;
0811   1261             S2I_CMDPROC1:	; CHECK FOR VALID LUN
0812   1261 3A 0B 90    	LD	A,(S2I_CMDBUF + 0)	; GET THE OPCODE
0813   1264 FE 03       	CP	$03			; REQUEST SENSE?
0814   1266 28 15       	JR	Z,S2I_CMDPROC2		; YES, ALLOW ANY LUN
0815   1268 3A 03 90    	LD	A,(S2I_LUN)		; GET THE LUN VALUE BACK
0816   126B 47          	LD	B,A			; PUT IT IN B
0817   126C 3E 01       	LD	A,S2I_LUNCNT - 1	; GET MAX LUN VALUE  IN A
0818   126E B8          	CP	B			; COMPARE ACT LUN (B) TO LUN COUNT (A)
0819   126F 30 0C       	JR	NC,S2I_CMDPROC2		; MAX LUN VALUE NOT EXCEEDED, GOOD, CONTINUE
0820   1271 3E 02       	LD	A,$02			; CHECK CONDITION STATUS VALUE
0821   1273 32 02 90    	LD	(S2I_STAT),A		; SAVE IT
0822   1276 3E 05       	LD	A,$05			; ILLEGAL REQUEST SENSE BYTE
0823   1278             	;LD	A,$02			; NOT READY SENSE BYTE
0824   1278 32 01 90    	LD	(S2I_SENSE),A		; SAVE IT
0825   127B 18 5D       	JR	S2I_CMDPROC3		; TERMINATE THE COMMAND
0826   127D             ;
0827   127D             S2I_CMDPROC2:	; PREP STACK FOR RETURN FROM HANDLER
0828   127D 21 DA 12    	LD	HL,S2I_CMDPROC3
0829   1280 E5          	PUSH	HL
0830   1281             ;
0831   1281             	; DISPATCH BASED ON OPCODE
0832   1281 3A 0B 90    	LD	A,(S2I_CMDBUF + 0)	; GET THE OPCODE
0833   1284 FE 00       	CP	$00			; TEST UNIT READY
0834   1286 CA EF 12    	JP	Z,S2I_CMD_TESTREADY
0835   1289 FE 01       	CP	$01			; REZERO UNIT
0836   128B CA F0 12    	JP	Z,S2I_CMD_REZERO
0837   128E FE 03       	CP	$03			; REQUEST SENSE
0838   1290 CA F1 12    	JP	Z,S2I_CMD_SENSE
0839   1293 FE 04       	CP	$04			; FORMAT UNIT
0840   1295 CA B9 13    	JP	Z,S2I_CMD_FORMAT
0841   1298 FE 08       	CP	$08			; GROUP 0 READ
0842   129A CA 0D 13    	JP	Z,S2I_CMD_READ
0843   129D FE 0A       	CP	$0A			; GROUP 0 WRITE
0844   129F CA 2D 13    	JP	Z,S2I_CMD_WRITE
0845   12A2 FE 0B       	CP	$0B			; GROUP 0 SEEK
0846   12A4 CA 4D 13    	JP	Z,S2I_CMD_SEEK
0847   12A7 FE 12       	CP	$12			; INQUIRY
0848   12A9 CA 4E 13    	JP	Z,S2I_CMD_INQUIRY
0849   12AC FE 1B       	CP	$1B			; START/STOP UNIT
0850   12AE CA A2 13    	JP	Z,S2I_CMD_SSUNIT
0851   12B1 FE 1D       	CP	$1D			; SEND DIAGNOSTIC
0852   12B3 CA A3 13    	JP	Z,S2I_CMD_DIAG
0853   12B6 FE 25       	CP	$25			; READ CAPACITY
0854   12B8 CA A4 13    	JP	Z,S2I_CMD_CAPACITY
0855   12BB FE 28       	CP	$28			; GROUP 1 READ
0856   12BD CA BA 13    	JP	Z,S2I_CMD_G1RD
0857   12C0 FE 2A       	CP	$2A			; GROUP 1 WRITE
0858   12C2 CA D5 13    	JP	Z,S2I_CMD_G1WR
0859   12C5 FE 2B       	CP	$2B			; GROUP 1 SEEK
0860   12C7 CA F0 13    	JP	Z,S2I_CMD_G1SEEK
0861   12CA FE 2F       	CP	$2F			; VERIFY
0862   12CC CA F1 13    	JP	Z,S2I_CMD_VERIFY
0863   12CF             ;
0864   12CF             	; UNKNOWN OPCODE
0865   12CF 3E 02       	LD	A,$02			; SET CHECK CONDITION VALUE
0866   12D1 32 02 90    	LD	(S2I_STAT),A		; SAVE IT
0867   12D4 3E 05       	LD	A,$05			; ILLEGAL REQUEST SENSE BYTE
0868   12D6 32 01 90    	LD	(S2I_SENSE),A		; SAVE IT
0869   12D9 C9          	RET
0870   12DA             ;
0871   12DA             S2I_CMDPROC3:	; SEND COMMAND STATUS
0872   12DA             ;
0873   12DA CD 0D 12    	CALL	S2I_MSGPROC		; HANDLE ANY PENDING MESSAGES FROM INITIATOR
0874   12DD             
0875   12DD CD FE 14    	CALL	S2I_STATUS		; SEND IT
0876   12E0 CD 0D 12    	CALL	S2I_MSGPROC		; HANDLE ANY PENDING MESSAGES FROM INITIATOR
0877   12E3             ;
0878   12E3             	; SEND COMMAND COMPLETE MESSAGE
0879   12E3 3E 00       	LD	A,$00			; COMMAND COMPLETE MESSAGE VALUE
0880   12E5 32 00 90    	LD	(S2I_MSG),A		; PUT IN MSG BUFFER
0881   12E8 CD A8 14    	CALL	S2I_MSGIN		; RUN MESSAGE IN PHASE
0882   12EB CD 0D 12    	CALL	S2I_MSGPROC		; HANDLE ANY PENDING MESSAGES FROM INITIATOR
0883   12EE             ;
0884   12EE C9          	RET				; DONE
0885   12EF             ;
0886   12EF             ; TEST UNIT READY COMMAND HANDLER
0887   12EF             ;
0888   12EF             S2I_CMD_TESTREADY:
0889   12EF             	; JUST RETURN WITH GOOD STATUS
0890   12EF C9          	RET
0891   12F0             ;
0892   12F0             ; REZERO UNIT COMMAND HANDLER
0893   12F0             ;
0894   12F0             S2I_CMD_REZERO:
0895   12F0             	; JUST RETURN WITH GOOD STATUS
0896   12F0 C9          	RET
0897   12F1             ;
0898   12F1             ; REQUEST SENSE
0899   12F1             ;
0900   12F1             S2I_CMD_SENSE:
0901   12F1             ;
0902   12F1             	; SETUP THE RESPONSE BUFFER WITH SENSE RESPONSE TEMPLATE
0903   12F1 21 6A 1B    	LD	HL,S2I_SENSERESP	; SOURCE
0904   12F4 11 18 90    	LD	DE,S2I_RESPBUF		; DESTINATION
0905   12F7 01 08 00    	LD	BC,S2I_SENSERESPLEN	; LENGTH
0906   12FA ED B0       	LDIR				; COPY BYTES
0907   12FC             ;
0908   12FC             	; FILL IN THE CURRENT SENSE BYTE
0909   12FC 3A 01 90    	LD	A,(S2I_SENSE)		; LOAD CURRENT SENSE BYTE
0910   12FF 32 1A 90    	LD	(S2I_RESPBUF + 2),A	; PUT IT IN THE RESPONSE
0911   1302             ;
0912   1302             	; SEND THE RESPONSE
0913   1302 21 18 90    	LD	HL,S2I_RESPBUF
0914   1305 06 08       	LD	B,S2I_SENSERESPLEN
0915   1307 0E 01       	LD	C,1
0916   1309 CD 28 15    	CALL	S2I_DIN
0917   130C C9          	RET
0918   130D             ;
0919   130D             ; GROUP 0 READ DATA COMMAND HANDLER
0920   130D             ;
0921   130D             S2I_CMD_READ:
0922   130D             	; SETUP HL:DE WITH LOGICAL BLOCK
0923   130D 26 00       	LD	H,0			; H IS NEVER USED, ALWAYS ZERO
0924   130F 3A 0C 90    	LD	A,(S2I_CMDBUF + 1)	; MSB
0925   1312 E6 1F       	AND	%00011111		; REMOVE IRRELEVANT LUN BITS
0926   1314 6F          	LD	L,A			; LOAD IN L
0927   1315 3A 0D 90    	LD	A,(S2I_CMDBUF + 2)	; NEXT BYTE
0928   1318 57          	LD	D,A			; LOAD IN D
0929   1319 3A 0E 90    	LD	A,(S2I_CMDBUF + 3)	; LSB
0930   131C 5F          	LD	E,A			; LOAD IN E
0931   131D             	; SETUP BC WITH TRANSFER COUNT (NUMBER OF BLOCKS)
0932   131D 3A 0F 90    	LD	A,(S2I_CMDBUF + 4)	; GET TRANSFER LENGTH
0933   1320 4F          	LD	C,A			; COPY TO C
0934   1321 06 00       	LD	B,0			; COMPLETE BC, B := 0
0935   1323             ;
0936   1323             	; READ THE DATA FROM IDE DEVICE
0937   1323 79          	LD	A,C			; RECOVER THE TRANSFER LENGTH
0938   1324 B7          	OR	A			; SET FLAGS
0939   1325 C2 F2 13    	JP	NZ,S2I_READ		; NOT ZERO, SO DO READ AS IS
0940   1328             ;
0941   1328             	; SPECIAL CASE IF TRANSFER LENGTH = 0, IT MEANS 256 BLOCKS!
0942   1328 06 01       	LD	B,1			; COUNT = 0, SO B := 1 FOR A 256 BLOCK XFR
0943   132A C3 F2 13    	JP	S2I_READ		; NOW DO IT
0944   132D             ;
0945   132D             ; GROUP 0 WRITE DATA COMMAND HANDLER
0946   132D             ;
0947   132D             S2I_CMD_WRITE:
0948   132D             	; SETUP HL:DE WITH LOGICAL BLOCK
0949   132D 26 00       	LD	H,0			; H IS NEVER USED, ALWAYS ZERO
0950   132F 3A 0C 90    	LD	A,(S2I_CMDBUF + 1)	; MSB
0951   1332 E6 1F       	AND	%00011111		; REMOVE IRRELEVANT LUN BITS
0952   1334 6F          	LD	L,A			; LOAD IN L
0953   1335 3A 0D 90    	LD	A,(S2I_CMDBUF + 2)	; NEXT BYTE
0954   1338 57          	LD	D,A			; LOAD IN D
0955   1339 3A 0E 90    	LD	A,(S2I_CMDBUF + 3)	; LSB
0956   133C 5F          	LD	E,A			; LOAD IN E
0957   133D             	; SETUP BC WITH TRANSFER COUNT (NUMBER OF BLOCKS)
0958   133D 3A 0F 90    	LD	A,(S2I_CMDBUF + 4)	; GET TRANSFER LENGTH
0959   1340 4F          	LD	C,A			; COPY TO C
0960   1341 06 00       	LD	B,0			; COMPLETE BC, B := 0
0961   1343             ;
0962   1343             	; WRITE DATA TO THE IDE DEVICE
0963   1343 79          	LD	A,C			; RECOVER THE TRANSFER LENGTH
0964   1344 B7          	OR	A			; SET FLAGS
0965   1345 C2 3E 14    	JP	NZ,S2I_WRITE		; NOT ZERO, SO DO WRITE AS IS
0966   1348             ;
0967   1348             	; SPECIAL CASE IF TRANSFER LENGTH = 0, IT MEANS 256 BLOCKS!
0968   1348 06 01       	LD	B,1			; COUNT = 0, SO B := 1 FOR A 256 BLOCK XFR
0969   134A C3 3E 14    	JP	S2I_WRITE		; NOW DO IT
0970   134D             ;
0971   134D             ; SEEK COMMAND HANDLER
0972   134D             ;
0973   134D             S2I_CMD_SEEK:
0974   134D C9          	RET
0975   134E             ;
0976   134E             ; INQUIRY COMMAND HANDLER
0977   134E             ;
0978   134E             S2I_CMD_INQUIRY:
0979   134E             ;
0980   134E             	; SETUP THE RESPONSE BUFFER WITH INQUIRY RESPONSE TEMPLATE
0981   134E 21 36 1B    	LD	HL,S2I_INQRESP		; SOURCE
0982   1351 11 18 90    	LD	DE,S2I_RESPBUF		; DESTINATION
0983   1354 01 24 00    	LD	BC,S2I_INQRESPLEN	; LENGTH
0984   1357 ED B0       	LDIR				; COPY BYTES
0985   1359             ;
0986   1359             	; CHECK FOR VALID LUN, IF VALID SEND STD RESPONSE
0987   1359 3A 03 90    	LD	A,(S2I_LUN)		; GET THE LUN VALUE BACK
0988   135C 47          	LD	B,A			; PUT IT IN B
0989   135D 3E 01       	LD	A,S2I_LUNCNT - 1	; GET MAX LUN VALUE  IN A
0990   135F B8          	CP	B			; COMPARE ACT LUN (B) TO LUN COUNT (A)
0991   1360 30 05       	JR	NC,S2I_CMD_INQUIRY1	; MAX LUN VALUE NOT EXCEEDED, GOOD, CONTINUE
0992   1362             ;
0993   1362             	; INVALID LUN, FIRST BYTE OF RESPONSE := $7F TO INDICATE SO
0994   1362 3E 7F       	LD	A,$7F			; A := $7F MEANS LUN NOT PRESENT
0995   1364 32 18 90    	LD	(S2I_RESPBUF),A		; SET FIRST BYTE OF RESPONSE
0996   1367             ;
0997   1367             S2I_CMD_INQUIRY1:
0998   1367             ;
0999   1367             	; FILL IN CONFIG INFO
1000   1367 3A 08 90    	LD	A,(S2I_DEVICE)		; GET DEVICE
1001   136A 21 2A 1B    	LD	HL,STR_CFGIDE		; ASSUME IDE
1002   136D FE 40       	CP	DIODEV_PPIDE		; IS IT IDE?
1003   136F 28 0A       	JR	Z,S2I_CMD_INQUIRY2	; YES, SET RESPONSE
1004   1371 21 2D 1B    	LD	HL,STR_CFGSD		; ASSUME SD
1005   1374 FE 50       	CP	DIODEV_SD		; IS IT SD?
1006   1376 28 03       	JR	Z,S2I_CMD_INQUIRY2	; YES, SET RESPONSE
1007   1378 21 30 1B    	LD	HL,STR_CFGUNK		; MUST BE UNKNOWN
1008   137B             S2I_CMD_INQUIRY2:
1009   137B 11 30 90    	LD	DE,S2I_RESPBUF + 24	; INJECT INTO PRODUCT ID
1010   137E 01 03 00    	LD	BC,3			; ALWAYS 3 BYTES
1011   1381 ED B0       	LDIR				; UPDATE THE RESPONSE
1012   1383             ;
1013   1383             	; FILL IN DEBUG FLAG IF ACTIVE
1014   1383 3A 09 90    	LD	A,(S2I_DBGLVL)		; GET DEBUG LEVEL
1015   1386 FE 02       	CP	2			; IS IT 2 OR GREATER?
1016   1388 38 0B       	JR	C,S2I_CMD_INQUIRY3	; IF NOT, SKIP AHEAD
1017   138A 21 33 1B    	LD	HL,STR_CFGDBG		; DEBUG STRING
1018   138D 11 34 90    	LD	DE,S2I_RESPBUF + 28	; INJECT INTO PRODUCT ID
1019   1390 01 03 00    	LD	BC,3			; ALWAYS 3 BYTES
1020   1393 ED B0       	LDIR				; UPDATE THE RESPONSE
1021   1395             ;
1022   1395             S2I_CMD_INQUIRY3:
1023   1395             ;
1024   1395             	; SEND THE RESPONSE
1025   1395 21 18 90    	LD	HL,S2I_RESPBUF		; POINT TO RESPONSE BUFFER
1026   1398 3A 0F 90    	LD	A,(S2I_CMDBUF + 4)	; CMDBUF + 4 HAS ALLOC LEN
1027   139B 47          	LD	B,A			; MOVE IT TO B
1028   139C 0E 01       	LD	C,1			; ALWAYS 1 OUTER LOOP ITERATION
1029   139E CD 28 15    	CALL	S2I_DIN			; SEND THE RESPONSE
1030   13A1 C9          	RET
1031   13A2             ;
1032   13A2             ; START/STOP UNIT COMMAND HANDLER
1033   13A2             ;
1034   13A2             S2I_CMD_SSUNIT:
1035   13A2 C9          	RET
1036   13A3             ;
1037   13A3             ; SEND DIAGNOSTIC COMMAND HANDLER
1038   13A3             ;
1039   13A3             S2I_CMD_DIAG:
1040   13A3 C9          	RET
1041   13A4             ;
1042   13A4             ; TEST UNIT READY COMMAND HANDLER
1043   13A4             ;
1044   13A4             S2I_CMD_CAPACITY:
1045   13A4 21 5A 1B    	LD	HL,S2I_CAPRESP512	; ASSUME 512 BYTE BLOCKS
1046   13A7 3A 07 90    	LD	A,(S2I_BLKSIZE)		; GET BLOCKSIZE
1047   13AA FE 02       	CP	2			; 512?
1048   13AC 28 03       	JR	Z,S2I_CMD_CAPACITY1	; DONE
1049   13AE 21 62 1B    	LD	HL,S2I_CAPRESP256	; ELSE 256 BYTE BLOCKS
1050   13B1             S2I_CMD_CAPACITY1:
1051   13B1 0E 01       	LD	C,1			; 1 OUTER LOOP ITERATION
1052   13B3 06 08       	LD	B,S2I_CAPRESPLEN
1053   13B5 CD 28 15    	CALL	S2I_DIN
1054   13B8 C9          	RET
1055   13B9             ;
1056   13B9             ; FORMAT UNIT COMMAND HANDLER
1057   13B9             ;
1058   13B9             S2I_CMD_FORMAT:
1059   13B9 C9          	RET
1060   13BA             ;
1061   13BA             ; GROUP 1 READ DATA COMMAND HANDLER
1062   13BA             ;
1063   13BA             S2I_CMD_G1RD:
1064   13BA             	; SETUP HL:DE WITH LOGICAL BLOCK
1065   13BA 3A 0D 90    	LD	A,(S2I_CMDBUF + 2)	; MSB
1066   13BD 67          	LD	H,A			; LOAD IN H
1067   13BE 3A 0E 90    	LD	A,(S2I_CMDBUF + 3)	; NEXT BYTE
1068   13C1 6F          	LD	L,A			; LOAD IN L
1069   13C2 3A 0F 90    	LD	A,(S2I_CMDBUF + 4)	; NEXT BYTE
1070   13C5 57          	LD	D,A			; LOAD IN D
1071   13C6 3A 10 90    	LD	A,(S2I_CMDBUF + 5)	; LSB
1072   13C9 5F          	LD	E,A			; LOAD IN E
1073   13CA             	; SETUP BC WITH TRANSFER COUNT (NUMBER OF BLOCKS)
1074   13CA 3A 12 90    	LD	A,(S2I_CMDBUF + 7)	; GET TRANSFER LENGTH MSB
1075   13CD 47          	LD	B,A			; COPY TO B
1076   13CE 3A 13 90    	LD	A,(S2I_CMDBUF + 8)	; GET TRANSFER LENGTH LSB
1077   13D1 4F          	LD	C,A			; COPY TO C
1078   13D2             ;
1079   13D2             	; READ THE DATA FROM IDE DEVICE
1080   13D2 C3 F2 13    	JP	S2I_READ
1081   13D5             ;
1082   13D5             ; GROUP 1 WRITE DATA COMMAND HANDLER
1083   13D5             ;
1084   13D5             S2I_CMD_G1WR:
1085   13D5             	; SETUP HL:DE WITH LOGICAL BLOCK
1086   13D5 3A 0D 90    	LD	A,(S2I_CMDBUF + 2)	; MSB
1087   13D8 67          	LD	H,A			; LOAD IN H
1088   13D9 3A 0E 90    	LD	A,(S2I_CMDBUF + 3)	; NEXT BYTE
1089   13DC 6F          	LD	L,A			; LOAD IN L
1090   13DD 3A 0F 90    	LD	A,(S2I_CMDBUF + 4)	; NEXT BYTE
1091   13E0 57          	LD	D,A			; LOAD IN D
1092   13E1 3A 10 90    	LD	A,(S2I_CMDBUF + 5)	; LSB
1093   13E4 5F          	LD	E,A			; LOAD IN E
1094   13E5             	; SETUP BC WITH TRANSFER COUNT (NUMBER OF BLOCKS)
1095   13E5 3A 12 90    	LD	A,(S2I_CMDBUF + 7)	; GET TRANSFER LENGTH MSB
1096   13E8 47          	LD	B,A			; COPY TO B
1097   13E9 3A 13 90    	LD	A,(S2I_CMDBUF + 8)	; GET TRANSFER LENGTH LSB
1098   13EC 4F          	LD	C,A			; COPY TO C
1099   13ED             ;
1100   13ED             	; READ THE DATA FROM IDE DEVICE
1101   13ED C3 3E 14    	JP	S2I_WRITE
1102   13F0             ;
1103   13F0             ; GROUP 1 SEEK COMMAND HANDLER
1104   13F0             ;
1105   13F0             S2I_CMD_G1SEEK:
1106   13F0 C9          	RET
1107   13F1             ;
1108   13F1             ; VERIFY COMMAND HANDLER
1109   13F1             ;
1110   13F1             S2I_CMD_VERIFY:
1111   13F1 C9          	RET
1112   13F2             ;
1113   13F2             ;===============================================================
1114   13F2             ; READ STORAGE -> SCSI
1115   13F2             ;===============================================================
1116   13F2             ;
1117   13F2             ; READ AND SEND BLOCKS OF DATA FROM IDE TO SCSI
1118   13F2             ; BC = BLOCKS TO TRANSFER
1119   13F2             ; HL:DE = LOGICAL BLOCK TO START TRANSFERRING
1120   13F2             ;
1121   13F2             S2I_READ:
1122   13F2             ;
1123   13F2             	; CHECK FOR ZERO BLOCK XFR
1124   13F2 78          	LD	A,B			; A : = B
1125   13F3 B1          	OR	C			; OR WITH C
1126   13F4 C8          	RET	Z			; ZERO BLOCKS, ALL DONE
1127   13F5             ;
1128   13F5             	; OFFSET FOR LUN
1129   13F5 3A 03 90    	LD	A,(S2I_LUN)		; GET CURRENT LUN
1130   13F8 B7          	OR	A			; SET FLAGS
1131   13F9 28 0B       	JR	Z,S2I_READ2		; LUN 0 SELECTED, NO OFFSET NEEDED
1132   13FB C5          	PUSH	BC			; SAVE BC SO WE CAN USE IT
1133   13FC D5          	PUSH	DE			; SAVE DE SO WE CAN USE IT
1134   13FD 47          	LD	B,A			; PUT CURRENT LUN IN B FOR COUNT
1135   13FE 11 20 00    	LD	DE,S2I_LUN_OFFSET	; DE IS HIGH WORD OFFSET TO ADD PER LUN
1136   1401             S2I_READ1:	
1137   1401 19          	ADD	HL,DE			; DO IT
1138   1402 10 FD       	DJNZ	S2I_READ1		; LOOP AS NEEDED
1139   1404 D1          	POP	DE			; RECOVER DE
1140   1405 C1          	POP	BC			; RECOVER BC
1141   1406             ;
1142   1406             S2I_READ2:	; SAVE INCOMING PARMS
1143   1406 E5          	PUSH	HL
1144   1407 D5          	PUSH	DE
1145   1408 C5          	PUSH	BC
1146   1409             ;	
1147   1409             	; READ DATA FROM PPIDE DEVICE
1148   1409 06 10       	LD	B,BF_DIORD
1149   140B 3A 08 90    	LD	A,(S2I_DEVICE)
1150   140E 4F          	LD	C,A
1151   140F CF          	RST	08
1152   1410 20 1E       	JR	NZ,S2I_READERR
1153   1412             ;
1154   1412             	; SEND DATA TO SCSI BUS
1155   1412 21 1A 91    	LD	HL,S2I_DSKBUF
1156   1415 06 00       	LD	B,0			; FULL 256 BYTES
1157   1417 3A 07 90    	LD	A,(S2I_BLKSIZE)		; GET BLOCK SIZE
1158   141A 4F          	LD	C,A			; AND USE FOR LOOP ITERATIONS
1159   141B CD 28 15    	CALL	S2I_DIN		; SEND DATA TO HOST
1160   141E CD 0D 12    	CALL	S2I_MSGPROC		; HANDLE ANY PENDING MESSAGES FROM INITIATOR
1161   1421             ;
1162   1421             	; RECOVER BC & HL:DE
1163   1421 C1          	POP	BC
1164   1422 D1          	POP	DE
1165   1423 E1          	POP	HL
1166   1424             ;
1167   1424             	; INCREMENT HL:DE
1168   1424 13          	INC	DE
1169   1425 7A          	LD	A,D
1170   1426 B3          	OR	E
1171   1427 20 01       	JR	NZ,S2I_READ3
1172   1429 23          	INC	HL
1173   142A             ;
1174   142A             S2I_READ3:	; CHECK COUNT AND LOOP AS NEEDED
1175   142A 0B          	DEC	BC
1176   142B 78          	LD	A,B
1177   142C B1          	OR	C
1178   142D 20 D7       	JR	NZ,S2I_READ2
1179   142F C9          	RET
1180   1430             ;
1181   1430             S2I_READERR:	; READ ERROR
1182   1430 F1          	POP	AF			; UNWIND STACK
1183   1431 F1          	POP	AF
1184   1432 F1          	POP	AF
1185   1433 3E 02       	LD	A,%00000010		; SET CHECK CONDITION STATUS
1186   1435 32 02 90    	LD	(S2I_STAT),A		; SAVE IT
1187   1438 3E 04       	LD	A,4			; SENSE CODE 4 MEANS HARDWARE ERROR
1188   143A 32 01 90    	LD	(S2I_SENSE),A		; SAVE IT
1189   143D C9          	RET				; ABORT THE READ LOOP
1190   143E             ;
1191   143E             ;===============================================================
1192   143E             ; WRITE SCSI -> STORAGE
1193   143E             ;===============================================================
1194   143E             ;
1195   143E             ; READ SCSI DATA BLOCKS AND WRITE TO IDE DEVICE
1196   143E             ; BC = BLOCKS TO TRANSFER
1197   143E             ; HL:DE = LOGICAL BLOCK TO START TRANSFERRING
1198   143E             ;
1199   143E             S2I_WRITE:
1200   143E             ;
1201   143E             	; CHECK FOR ZERO BLOCK XFR
1202   143E 78          	LD	A,B			; A : = B
1203   143F B1          	OR	C			; OR WITH C
1204   1440 C8          	RET	Z			; ZERO BLOCKS, ALL DONE
1205   1441             ;
1206   1441             	; OFFSET FOR LUN
1207   1441 3A 03 90    	LD	A,(S2I_LUN)		; GET CURRENT LUN
1208   1444 B7          	OR	A			; SET FLAGS
1209   1445 28 0B       	JR	Z,S2I_WRITE2		; LUN 0 SELECTED, NO OFFSET NEEDED
1210   1447 C5          	PUSH	BC			; SAVE BC SO WE CAN USE IT
1211   1448 D5          	PUSH	DE			; SAVE DE SO WE CAN USE IT
1212   1449 47          	LD	B,A			; PUT CURRENT LUN IN B FOR COUNT
1213   144A 11 20 00    	LD	DE,S2I_LUN_OFFSET	; DE IS HIGH WORD OFFSET TO ADD PER LUN
1214   144D             S2I_WRITE1:	
1215   144D 19          	ADD	HL,DE			; DO IT
1216   144E 10 FD       	DJNZ	S2I_WRITE1		; LOOP AS NEEDED
1217   1450 D1          	POP	DE			; RECOVER DE
1218   1451 C1          	POP	BC			; RECOVER BC
1219   1452             ;
1220   1452             S2I_WRITE2:	; SAVE INCOMING PARMS
1221   1452 E5          	PUSH	HL
1222   1453 D5          	PUSH	DE
1223   1454 C5          	PUSH	BC
1224   1455             ;
1225   1455             	; READ DATA FROM SCSI BUS
1226   1455 21 1A 91    	LD	HL,S2I_DSKBUF
1227   1458 06 00       	LD	B,0			; FULL 256 BYTES
1228   145A 3A 07 90    	LD	A,(S2I_BLKSIZE)		; GET BLOCK SIZE
1229   145D 4F          	LD	C,A			; AND USE FOR LOOP ITERATIONS
1230   145E CD 16 15    	CALL	S2I_DOUT		; GET DATA FROM HOST
1231   1461 CD 0D 12    	CALL	S2I_MSGPROC		; HANDLE ANY PENDING MESSAGES FROM INITIATOR
1232   1464             ;
1233   1464             	; RECOVER INCOMING PARMS
1234   1464 C1          	POP	BC
1235   1465 D1          	POP	DE
1236   1466 E1          	POP	HL
1237   1467             ;
1238   1467             	; RESAVE INCOMING PARMS
1239   1467 E5          	PUSH	HL
1240   1468 D5          	PUSH	DE
1241   1469 C5          	PUSH	BC
1242   146A             ;
1243   146A             	; WRITE DATA TO PPIDE DEVICE
1244   146A 06 11       	LD	B,BF_DIOWR
1245   146C 3A 08 90    	LD	A,(S2I_DEVICE)
1246   146F 4F          	LD	C,A
1247   1470 CF          	RST	08			; PERFORM REQUESTED HBIOS CALL
1248   1471 20 0F       	JR	NZ,S2I_WRITEERR
1249   1473             ;
1250   1473             	; RECOVER INCOMING PARMS AGAIN
1251   1473 C1          	POP	BC
1252   1474 D1          	POP	DE
1253   1475 E1          	POP	HL
1254   1476             ;
1255   1476             	; INCREMENT HL:DE
1256   1476 13          	INC	DE
1257   1477 7A          	LD	A,D
1258   1478 B3          	OR	E
1259   1479 20 01       	JR	NZ,S2I_WRITE3
1260   147B 23          	INC	HL
1261   147C             ;
1262   147C             S2I_WRITE3:	; CHECK COUNT AND LOOP AS NEEDED
1263   147C 0B          	DEC	BC
1264   147D 78          	LD	A,B
1265   147E B1          	OR	C
1266   147F 20 D1       	JR	NZ,S2I_WRITE2
1267   1481 C9          	RET
1268   1482             ;
1269   1482             S2I_WRITEERR:	; WRITE ERROR
1270   1482 F1          	POP	AF			; UNWIND STACK
1271   1483 F1          	POP	AF
1272   1484 F1          	POP	AF
1273   1485 3E 02       	LD	A,%00000010		; SET CHECK CONDITION STATUS
1274   1487 32 02 90    	LD	(S2I_STAT),A		; SAVE IT
1275   148A 3E 04       	LD	A,4			; SENSE CODE 4 MEANS HARDWARE ERROR
1276   148C 32 01 90    	LD	(S2I_SENSE),A		; ABORT THE WRITE LOOP IMMEDIATELY
1277   148F C9          	RET
1278   1490             ;
1279   1490             ;===============================================================
1280   1490             ; SCSI MESSAGE OUT PHASE
1281   1490             ;===============================================================
1282   1490             ;
1283   1490             ; TRANSFER A MESSAGE BYTE FROM INITIATOR TO TARGET
1284   1490             ; MESSAGE BYTE VALUE WILL BE STORED AT S2I_MSG
1285   1490             ;
1286   1490             S2I_MSGOUT:
1287   1490             ;
1288   1490             #IF (S2I_TRACE >= 2)
1289   1490 11 7E 19    	LD	DE,STR_MSGOUT
1290   1493 3A 09 90    	LD	A,(S2I_DBGLVL)
1291   1496 FE 02       	CP	2
1292   1498 D4 A1 17    	CALL	NC,WRITESTR
1293   149B             #ENDIF
1294   149B             ;
1295   149B~            #IFDEF S2I_IPDELAY
1296   149B~            	CALL	S2I_IPDELAY
1297   149B             #ENDIF
1298   149B             ;
1299   149B             	; TRANSFER THE BYTE
1300   149B 21 00 90    	LD	HL,S2I_MSG		; POINT TO MSG BYTE
1301   149E 01 01 01    	LD	BC,$0101		; SINGLE BYTE TRANSFER
1302   14A1 3E 06       	LD	A,S2I_PHMSGOUT		; MESSAGE OUT PHASE
1303   14A3 D3 8B       	OUT	(S2I_TCR),A		; SET TARGET CONFIG
1304   14A5 C3 3A 15    	JP	S2I_GET			; DO THE REAL WORK & RETURN
1305   14A8             ;
1306   14A8             ;===============================================================
1307   14A8             ; SCSI MESSAGE IN PHASE
1308   14A8             ;===============================================================
1309   14A8             ;
1310   14A8             ; TRANSFER A MESSAGE BYTE FROM TARGET TO INITIATOR
1311   14A8             ; MESSAGE BYTE VALUE MUST BE STORED AT S2I_MSG
1312   14A8             ;
1313   14A8             S2I_MSGIN:
1314   14A8             ;
1315   14A8             #IF (S2I_TRACE >= 2)
1316   14A8 11 6F 19    	LD	DE,STR_MSGIN
1317   14AB 3A 09 90    	LD	A,(S2I_DBGLVL)
1318   14AE FE 02       	CP	2
1319   14B0 D4 A1 17    	CALL	NC,WRITESTR
1320   14B3             #ENDIF
1321   14B3             ;
1322   14B3~            #IFDEF S2I_IPDELAY
1323   14B3~            	CALL	S2I_IPDELAY
1324   14B3             #ENDIF
1325   14B3             ;
1326   14B3             	; TRANSFER THE BYTE
1327   14B3 21 00 90    	LD	HL,S2I_MSG		; POINT TO MSG BYTE
1328   14B6 01 01 01    	LD	BC,$0101		; SINGLE BYTE TRANSFER
1329   14B9 3E 07       	LD	A,S2I_PHMSGIN		; MESSAGE IN PHASE
1330   14BB D3 8B       	OUT	(S2I_TCR),A		; SET TARGET CONFIG
1331   14BD C3 79 15    	JP	S2I_PUT			; DO THE REAL WORK & RETURN
1332   14C0             ;
1333   14C0             ;===============================================================
1334   14C0             ; SCSI COMMAND PHASE
1335   14C0             ;===============================================================
1336   14C0             ;
1337   14C0             ; TRANSFER A COMMAND FROM INITIATOR TO TARGET
1338   14C0             ; RESULT IS STORED IN S2I_CMDBUF
1339   14C0             ;
1340   14C0             S2I_CMD:
1341   14C0             ;
1342   14C0             #IF (S2I_TRACE >= 2)
1343   14C0 11 3F 19    	LD	DE,STR_CMD
1344   14C3 3A 09 90    	LD	A,(S2I_DBGLVL)
1345   14C6 FE 02       	CP	2
1346   14C8 D4 A1 17    	CALL	NC,WRITESTR
1347   14CB             #ENDIF
1348   14CB             ;
1349   14CB~            #IFDEF S2I_IPDELAY
1350   14CB~            	CALL	S2I_IPDELAY
1351   14CB             #ENDIF
1352   14CB             ;
1353   14CB             	; GET THE FIRST BYTE (OPCODE)
1354   14CB 21 0B 90    	LD	HL,S2I_CMDBUF		; POINT TO COMMAND BUFFER
1355   14CE 3E AA       	LD	A,$AA
1356   14D0 77          	LD	(HL),A
1357   14D1 01 01 01    	LD	BC,$0101		; JUST DO FIRST BYTE FOR NOW (OPCODE)
1358   14D4 3E 02       	LD	A,S2I_PHCMD		; COMMAND PHASE
1359   14D6 D3 8B       	OUT	(S2I_TCR),A		; SET TARGET CONFIG
1360   14D8 CD 3A 15    	CALL	S2I_GET			; DO IT
1361   14DB             ;
1362   14DB             	; SET NUMBER OF BYTES LEFT TO GET BASED ON OPCODE
1363   14DB 01 01 00    	LD	BC,$0001		; INITIALIZE COUNT (1 ITERATION OF ?)
1364   14DE 3A 0B 90    	LD	A,(S2I_CMDBUF)		; GET OPCODE VALUE
1365   14E1 E6 E0       	AND	%11100000		; ISLOATE OPCODE GROUP
1366   14E3 06 05       	LD	B,5			; ASSUME GROUP 0, 6 BYTES (5 MORE)
1367   14E5 FE 00       	CP	%00000000		; GROUP 0?
1368   14E7 28 0F       	JR	Z,S2I_CMD1		; YES, DONE
1369   14E9 06 09       	LD	B,9			; ASSUME GROUP 1, 10 BYTES (9 MORE)
1370   14EB FE 20       	CP	%00100000		; GROUP 1?
1371   14ED 28 09       	JR	Z,S2I_CMD1		; YES, DONE
1372   14EF 06 0B       	LD	B,11			; ASSUME GROUP 5, 12 BYTES (11 MORE)
1373   14F1 FE A0       	CP	%10100000		; GROUP 5?
1374   14F3 28 03       	JR	Z,S2I_CMD1		; YES, DONE
1375   14F5 CD B1 17    	CALL	PANIC			; HUH???
1376   14F8             ;
1377   14F8             S2I_CMD1:	; NOW GET THE REST OF THE BYTES
1378   14F8 21 0C 90    	LD	HL,S2I_CMDBUF + 1	; POINT TO COMMAND BUFFER + 1
1379   14FB C3 3A 15    	JP	S2I_GET			; DO IT & RETURN
1380   14FE             ;
1381   14FE             ;===============================================================
1382   14FE             ; SCSI STATUS PHASE
1383   14FE             ;===============================================================
1384   14FE             ;
1385   14FE             ; TRANSFER A STATUS BYTE FROM TARGET TO INITIATOR
1386   14FE             ; STATUS BYTE VALUE IS IN S2I_STATUS
1387   14FE             ;
1388   14FE             S2I_STATUS:
1389   14FE             ;
1390   14FE             #IF (S2I_TRACE >= 2)
1391   14FE 11 64 19    	LD	DE,STR_STATUS
1392   1501 3A 09 90    	LD	A,(S2I_DBGLVL)
1393   1504 FE 02       	CP	2
1394   1506 D4 A1 17    	CALL	NC,WRITESTR
1395   1509             #ENDIF
1396   1509             ;
1397   1509~            #IFDEF S2I_IPDELAY
1398   1509~            	CALL	S2I_IPDELAY
1399   1509             #ENDIF
1400   1509             ;
1401   1509             	; TRANSFER THE BYTE
1402   1509 21 02 90    	LD	HL,S2I_STAT		; POINT TO STATUS BYTE
1403   150C 01 01 01    	LD	BC,$0101		; SINGLE BYTE TRANSFER
1404   150F 3E 03       	LD	A,S2I_PHSTATUS		; STATUS PHASE
1405   1511 D3 8B       	OUT	(S2I_TCR),A		; SET TARGET CONFIG
1406   1513 C3 79 15    	JP	S2I_PUT			; DO THE REAL WORK & RETURN
1407   1516             ;
1408   1516             ;===============================================================
1409   1516             ; SCSI DATA OUT PHASE
1410   1516             ;===============================================================
1411   1516             ;
1412   1516             ; TRANSFER DATA FROM INITIATOR TO TARGET
1413   1516             ; BC = BYTES TO RECEIVE
1414   1516             ; HL = POINTER TO DATA BUFFER FOR RECEIVED DATA
1415   1516             ;
1416   1516             S2I_DOUT:
1417   1516             ;
1418   1516             #IF (S2I_TRACE >= 2)
1419   1516 11 57 19    	LD	DE,STR_DATAOUT
1420   1519 3A 09 90    	LD	A,(S2I_DBGLVL)
1421   151C FE 02       	CP	2
1422   151E D4 A1 17    	CALL	NC,WRITESTR
1423   1521             #ENDIF
1424   1521             ;
1425   1521~            #IFDEF S2I_IPDELAY
1426   1521~            	CALL	S2I_IPDELAY
1427   1521             #ENDIF
1428   1521             ;
1429   1521             	; TRANSFER THE BYTES
1430   1521 3E 00       	LD	A,S2I_PHDATAOUT		; DATA OUT PHASE
1431   1523 D3 8B       	OUT	(S2I_TCR),A		; SET TARGET CONFIG
1432   1525 C3 3A 15    	JP	S2I_GET			; DO THE REAL WORK & RETURN
1433   1528             ;
1434   1528             ;===============================================================
1435   1528             ; SCSI DATA IN PHASE
1436   1528             ;===============================================================
1437   1528             ;
1438   1528             ; TRANSFER DATA FROM TARGET TO INITIATOR
1439   1528             ; BC = BYTES TO SEND
1440   1528             ; HL = POINTER TO DATA BUFFER CONTAINING DATA TO SEND
1441   1528             ;
1442   1528             S2I_DIN:
1443   1528             ;
1444   1528             #IF (S2I_TRACE >= 2)
1445   1528 11 4B 19    	LD	DE,STR_DATAIN
1446   152B 3A 09 90    	LD	A,(S2I_DBGLVL)
1447   152E FE 02       	CP	2
1448   1530 D4 A1 17    	CALL	NC,WRITESTR
1449   1533             #ENDIF
1450   1533             ;
1451   1533~            #IFDEF S2I_IPDELAY
1452   1533~            	CALL	S2I_IPDELAY
1453   1533             #ENDIF
1454   1533             ;
1455   1533             	; TRANSFER THE BYTES
1456   1533 3E 01       	LD	A,S2I_PHDATAIN		; DATA IN PHASE
1457   1535 D3 8B       	OUT	(S2I_TCR),A		; SET TARGET CONFIG
1458   1537 C3 79 15    	JP	S2I_PUT			; DO THE REAL WORK & RETURN
1459   153A             ;
1460   153A             #IF (S2I_PDMA)
1461   153A             ;
1462   153A             ;===============================================================
1463   153A             ; GET BYTES FROM SCSI CONTROLLER (TARGET MODE / PSEUDO DMA)
1464   153A             ;===============================================================
1465   153A             ;
1466   153A             ; GET N BYTES FROM CONTROLLER -> MEMORY
1467   153A             ; A = PHASE
1468   153A             ; B = BYTES TO GET IN FIRST INNER LOOP
1469   153A             ; C = NUMBER OF OUTER LOOP ITERATIONS
1470   153A             ; HL = DESTINATION ADDRESS IN MEMORY
1471   153A             ; AN APPROPRIATE PHASE MUST ALREADY BE SETUP ON SCSI CONTROLLER
1472   153A             ;
1473   153A             S2I_GET:
1474   153A             ;
1475   153A             	; SAVE PARMS FOR LATER
1476   153A C5          	PUSH	BC			; SAVE BC
1477   153B E5          	PUSH	HL			; SAVE HL
1478   153C             ;
1479   153C             	; MAKE SURE THAT DATA BUS IS NOT ASSERTED
1480   153C DB 89       	IN	A,(S2I_ICR)		; GET ICR
1481   153E E6 FE       	AND	%11111110		; TURNOFF ASSERT DATA BUS
1482   1540 D3 89       	OUT	(S2I_ICR),A		; DO IT
1483   1542             ;
1484   1542             	; TURN ON DMA PROCESSING & INITIATE TARGET MODE RECEIVE OPERATION
1485   1542 DB 8A       	IN	A,(S2I_MR)		; GET CURRENT MODE REGISTER VALUE
1486   1544 F6 02       	OR	%00000010		; SET DMA MODE
1487   1546 D3 8A       	OUT	(S2I_MR),A		; DO IT
1488   1548 D3 8E       	OUT	(S2I_SDTR),A		; START DMA TARGET RECEIVE
1489   154A             ;
1490   154A 59          	LD	E,C			; OUTER LOOP COUNTER TO E
1491   154B 0E 9E       	LD	C,S2I_IDR + $10		; PORT TO READ (BYTE IN W/ ACK)
1492   154D             ;
1493   154D             	; LAST BYTE NEEDS SPECIAL HANDLING, PRE-DECRMENT AND DETECT
1494   154D             	; SINGLE BYTE TRANSFERS HERE
1495   154D 05          	DEC	B			; DECREMENT INNER LOOP COUNTER
1496   154E 20 03       	JR	NZ,S2I_GET1		; IF NOT ZERO, PROCEED TO NORMAL LOOP
1497   1550 1D          	DEC	E			; B == 0, SO DECREMENT OUTER LOOP COUNTER
1498   1551 28 0D       	JR	Z,S2I_GET2		; IF C == 0, ONE BYTE TRANSFER, SKIP AHEAD
1499   1553             ;
1500   1553             S2I_GET1:	; WAIT FOR DMA REQ
1501   1553 DB 8D       	IN	A,(S2I_BSR)		; GET BSR
1502   1555 CB 77       	BIT	6,A			; CHECK FOR DMA REQ
1503   1557 28 FA       	JR	Z,S2I_GET1		; LOOP UNTIL DATA READY
1504   1559             ;
1505   1559 ED A2       	INI				; READ NEXT BYTE
1506   155B             ;
1507   155B 20 F6       	JR	NZ,S2I_GET1		; LOOP AS NEEDED
1508   155D 1D          	DEC	E			; DECREMENT OUTER LOOP COUNTER
1509   155E 20 F3       	JR	NZ,S2I_GET1		; LOOP AS NEEDED
1510   1560             ;
1511   1560             S2I_GET2:	; WAIT FOR LAST BYTE
1512   1560 DB 8D       	IN	A,(S2I_BSR)		; GET BSR
1513   1562 CB 77       	BIT	6,A			; CHECK FOR DMA REQ
1514   1564 28 FA       	JR	Z,S2I_GET2		; LOOP UNTIL DATA READY
1515   1566             ;
1516   1566             	; RESET MODE (CLEAR DMA MODE)
1517   1566 DB 8A       	IN	A,(S2I_MR)		; GET CURRENT MODE REGISTER VALUE
1518   1568 E6 FD       	AND	%11111101		; CLEAR DMA MODE
1519   156A D3 8A       	OUT	(S2I_MR),A		; SEND IT
1520   156C             ;
1521   156C             	; GET THE LAST BYTE
1522   156C ED A2       	INI
1523   156E             ;
1524   156E             	; PRINT BUFFER RECEIVED
1525   156E E1          	POP	HL			; RECOVER HL
1526   156F C1          	POP	BC			; RECOVER BC
1527   1570             ;
1528   1570             #IF (S2I_TRACE >= 2)
1529   1570 3A 09 90    	LD	A,(S2I_DBGLVL)
1530   1573 FE 02       	CP	2
1531   1575 D4 A1 16    	CALL	NC,S2I_PRTBUF
1532   1578             #ENDIF
1533   1578             ;
1534   1578 C9          	RET				; DONE
1535   1579             ;
1536   1579             ;===============================================================
1537   1579             ; PUT BYTES TO SCSI CONTROLLER (TARGET MODE / PSEUDO DMA)
1538   1579             ;===============================================================
1539   1579             ;
1540   1579             ; PUT N BYTES FROM MEMORY -> CONTROLLER
1541   1579             ; A = PHASE
1542   1579             ; B = BYTES TO SEND IN FIRST INNER LOOP
1543   1579             ; C = NUMBER OF OUTER LOOP ITERATIONS
1544   1579             ; HL = POINTER TO DATA BUFFER CONTAINING DATA TO SEND
1545   1579             ; AN APPROPRIATE PHASE MUST ALREADY BE SETUP ON SCSI CONTROLLER
1546   1579             ;
1547   1579             S2I_PUT:
1548   1579             ;
1549   1579             #IF (S2I_TRACE >= 2)
1550   1579 3A 09 90    	LD	A,(S2I_DBGLVL)
1551   157C FE 02       	CP	2
1552   157E D4 A1 16    	CALL	NC,S2I_PRTBUF
1553   1581             #ENDIF
1554   1581             ;
1555   1581             	; MAKE SURE DATA BUS IS BEING ASSERTED
1556   1581 DB 89       	IN	A,(S2I_ICR)		; GET ICR
1557   1583 F6 01       	OR	%00000001		; TURN ON ASSERT DATA BUS
1558   1585 D3 89       	OUT	(S2I_ICR),A		; DO IT
1559   1587             ;
1560   1587             	; TURN ON DMA PROCESSING & INITIATE TARGET MODE SEND OPERATION
1561   1587 DB 8A       	IN	A,(S2I_MR)		; GET CURRENT MODE REGISTER VALUE
1562   1589 F6 02       	OR	%00000010		; SET DMA MODE
1563   158B D3 8A       	OUT	(S2I_MR),A		; DO IT
1564   158D D3 8D       	OUT	(S2I_SDS),A
1565   158F             ;
1566   158F 59          	LD	E,C			; OUTER LOOP COUNTER TO E
1567   1590 0E 9E       	LD	C,S2I_IDR + $10		; PORT TO WRITE (BYTE OUT W/ ACK)
1568   1592             ;
1569   1592             S2I_PUT1:	; WAIT FOR DMA REQ
1570   1592 DB 8D       	IN	A,(S2I_BSR)		; GET BSR
1571   1594 CB 77       	BIT	6,A			; CHECK FOR DMA REQ
1572   1596 28 FA       	JR	Z,S2I_PUT1		; LOOP UNTIL DATA READY
1573   1598             ;
1574   1598 ED A3       	OUTI				; SEND NEXT BYTE
1575   159A             ;
1576   159A 20 F6       	JR	NZ,S2I_PUT1		; LOOP AS NEEDED
1577   159C 1D          	DEC	E			; DECREMENT OUTER LOOP COUNTER
1578   159D 20 F3       	JR	NZ,S2I_PUT1		; LOOP AS NEEDED
1579   159F             ;
1580   159F             S2I_PUT2:	; WAIT FOR LAST BYTE TO BE SENT
1581   159F DB 8D       	IN	A,(S2I_BSR)		; GET BSR
1582   15A1 CB 77       	BIT	6,A			; CHECK FOR DMA REQ
1583   15A3 28 FA       	JR	Z,S2I_PUT2		; LOOP UNTIL DATA READY
1584   15A5             ;
1585   15A5             	; RESET MODE (CLEAR DMA MODE)
1586   15A5 DB 8A       	IN	A,(S2I_MR)		; GET CURRENT MODE REGISTER VALUE
1587   15A7 E6 FD       	AND	%11111101		; CLEAR DMA MODE
1588   15A9 D3 8A       	OUT	(S2I_MR),A		; SEND IT
1589   15AB             ;
1590   15AB             	; DEASSERT DATA BUS
1591   15AB DB 89       	IN	A,(S2I_ICR)		; GET ICR
1592   15AD E6 FE       	AND	%11111110		; TURNOFF ASSERT DATA BUS
1593   15AF D3 89       	OUT	(S2I_ICR),A		; DO IT
1594   15B1             ;
1595   15B1             #IF (S2I_TRACE >= 2)
1596   15B1 3A 09 90    	LD	A,(S2I_DBGLVL)
1597   15B4 FE 02       	CP	2
1598   15B6 D4 DE 16    	CALL	NC,PC_PERIOD
1599   15B9             #ENDIF
1600   15B9             ;
1601   15B9 C9          	RET
1602   15BA~            #ELSE
1603   15BA~            ;
1604   15BA~            ;===============================================================
1605   15BA~            ; GET BYTES FROM SCSI CONTROLLER (TARGET MODE / POLLING)
1606   15BA~            ;===============================================================
1607   15BA~            ;
1608   15BA~            ; GET N BYTES FROM CONTROLLER -> MEMORY
1609   15BA~            ; A = PHASE
1610   15BA~            ; B = BYTES TO GET IN FIRST INNER LOOP
1611   15BA~            ; C = NUMBER OF OUTER LOOP ITERATIONS
1612   15BA~            ; HL = DESTINATION ADDRESS IN MEMORY
1613   15BA~            ; AN APPROPRIATE PHASE MUST ALREADY BE SETUP ON SCSI CONTROLLER
1614   15BA~            ;
1615   15BA~            S2I_GET:
1616   15BA~            ;
1617   15BA~            	; SAVE PARMS FOR LATER
1618   15BA~            	PUSH	BC			; SAVE BC
1619   15BA~            	PUSH	HL			; SAVE HL
1620   15BA~            ;
1621   15BA~            	; MAKE SURE THAT DATA BUS IS NOT ASSERTED
1622   15BA~            	IN	A,(S2I_ICR)		; GET ICR
1623   15BA~            	AND	%11111110		; TURNOFF ASSERT DATA BUS
1624   15BA~            	OUT	(S2I_ICR),A		; DO IT
1625   15BA~            ;
1626   15BA~            	LD	E,C			; OUTER LOOP COUNTER TO E
1627   15BA~            	LD	C,S2I_CDR		; PORT TO READ
1628   15BA~            ;
1629   15BA~            S2I_GET1:	; ASSERT REQ TO REQUEST A BYTE
1630   15BA~            	IN	A,(S2I_TCR)		; GET TCR
1631   15BA~            	OR	%00001000		; SET REQ
1632   15BA~            	OUT	(S2I_TCR),A		; DO IT
1633   15BA~            ;
1634   15BA~            S2I_GET2:	; WAIT FOR ACK
1635   15BA~            	IN	A,(S2I_BSR)		; GET BUS AND STATUS
1636   15BA~            	AND	%00000001		; ISOLATE ACK
1637   15BA~            	JR	Z,S2I_GET2		; LOOP TILL ACK ASSERTED
1638   15BA~            ;
1639   15BA~            	; READ AND STORE BYTE
1640   15BA~            	INI				; READ AND INCREMENT
1641   15BA~            	PUSH	AF			; SAVE STATE
1642   15BA~            ;
1643   15BA~            	; DEASSERT REQ
1644   15BA~            	IN	A,(S2I_TCR)		; GET TCR
1645   15BA~            	AND	%11110111		; CLEAR REQ
1646   15BA~            	OUT	(S2I_TCR),A		; DO IT
1647   15BA~            ;
1648   15BA~            S2I_GET3:	; WAIT FOR ACK TO BE DEASSERTED
1649   15BA~            	IN	A,(S2I_BSR)		; GET BUS AND STATUS
1650   15BA~            	AND	%00000001		; ISOLATE ACK
1651   15BA~            	JR	NZ,S2I_GET3		; LOOP TILL ACK DEASSERTED
1652   15BA~            ;
1653   15BA~            	POP	AF			; RESTORE STATE
1654   15BA~            	JR	NZ,S2I_GET1		; INNER LOOP
1655   15BA~            	DEC	E			; DECREMENT OUTER LOOP COUNTER
1656   15BA~            	JR	NZ,S2I_GET1		; OUTER LOOP
1657   15BA~            ;
1658   15BA~            	; PRINT BUFFER RECEIVED
1659   15BA~            	POP	HL			; RECOVER HL
1660   15BA~            	POP	BC			; RECOVER BC
1661   15BA~            ;
1662   15BA~            #IF (S2I_TRACE >= 2)
1663   15BA~            	LD	A,(S2I_DBGLVL)
1664   15BA~            	CP	2
1665   15BA~            	CALL	NC,S2I_PRTBUF
1666   15BA~            #ENDIF
1667   15BA~            ;
1668   15BA~            	RET				; DONE
1669   15BA~            ;
1670   15BA~            ;===============================================================
1671   15BA~            ; PUT BYTES TO SCSI CONTROLLER (TARGET MODE / POLLING)
1672   15BA~            ;===============================================================
1673   15BA~            ;
1674   15BA~            ; PUT N BYTES FROM MEMORY -> CONTROLLER
1675   15BA~            ; A = PHASE
1676   15BA~            ; B = BYTES TO SEND IN FIRST INNER LOOP
1677   15BA~            ; C = NUMBER OF OUTER LOOP ITERATIONS
1678   15BA~            ; HL = POINTER TO DATA BUFFER CONTAINING DATA TO SEND
1679   15BA~            ; AN APPROPRIATE PHASE MUST ALREADY BE SETUP ON SCSI CONTROLLER
1680   15BA~            ;
1681   15BA~            S2I_PUT:
1682   15BA~            ;
1683   15BA~            #IF (S2I_TRACE >= 2)
1684   15BA~            	LD	A,(S2I_DBGLVL)
1685   15BA~            	CP	2
1686   15BA~            	CALL	NC,S2I_PRTBUF
1687   15BA~            #ENDIF
1688   15BA~            ;
1689   15BA~            	; START ASSERTING DATA BUS
1690   15BA~            	IN	A,(S2I_ICR)		; GET ICR
1691   15BA~            	OR	%00000001		; TURN ON ASSERT DATA BUS
1692   15BA~            	OUT	(S2I_ICR),A		; DO IT
1693   15BA~            ;
1694   15BA~            	LD	E,C			; OUTER LOOP COUNTER TO E
1695   15BA~            	LD	C,S2I_CDR		; PORT TO WRITE
1696   15BA~            ;
1697   15BA~            S2I_PUT1:	; ASSERT DATA ON BUS AND ASSERT REQ
1698   15BA~            	OUTI				; SET OUTPUT VALUE OF NEXT BYTE
1699   15BA~            	PUSH	AF			; SAVE STATE
1700   15BA~            ;
1701   15BA~            	IN	A,(S2I_TCR)		; GET TCR
1702   15BA~            	OR	%00001000		; SET REQ
1703   15BA~            	OUT	(S2I_TCR),A		; DO IT
1704   15BA~            ;
1705   15BA~            S2I_PUT2:	; WAIT FOR ACK, THEN DEASSERT REQ
1706   15BA~            	IN	A,(S2I_BSR)		; GET BUS AND STATUS
1707   15BA~            	AND	%00000001		; ISOLATE ACK
1708   15BA~            	JR	Z,S2I_PUT2		; LOOP TILL ACK ASSERTED
1709   15BA~            	IN	A,(S2I_TCR)		; GET TCR
1710   15BA~            	AND	%11110111		; CLEAR REQ
1711   15BA~            	OUT	(S2I_TCR),A		; DO IT
1712   15BA~            ;
1713   15BA~            S2I_PUT3:	; WAIT FOR ACK TO BE DEASSERTED
1714   15BA~            	IN	A,(S2I_BSR)		; GET BUS AND STATUS
1715   15BA~            	AND	%00000001		; ISOLATE ACK
1716   15BA~            	JR	NZ,S2I_PUT3		; LOOP TILL ACK DEASSERTED
1717   15BA~            ;
1718   15BA~            	; LOOP FOR NEXT BYTE
1719   15BA~            	POP	AF			; RESTORE STATE
1720   15BA~            	JR	NZ,S2I_PUT1		; LOOP AS NEEDED
1721   15BA~            	DEC	E			; DECREMENT OUTER LOOP COUNTER
1722   15BA~            	JR	NZ,S2I_PUT1		; LOOP AS NEEDED
1723   15BA~            ;
1724   15BA~            	; DEASSERT DATA BUS
1725   15BA~            	LD	A,%00001000		; DEASSERT DATA LINES
1726   15BA~            	OUT	(S2I_ICR),A		; SEND IT
1727   15BA~            ;
1728   15BA~            #IF (S2I_TRACE >= 2)
1729   15BA~            	LD	A,(S2I_DBGLVL)
1730   15BA~            	CP	2
1731   15BA~            	CALL	NC,PC_PERIOD
1732   15BA~            #ENDIF
1733   15BA~            ;
1734   15BA~            	RET
1735   15BA~            ;
1736   15BA             #ENDIF
1737   15BA             ;
1738   15BA             ;===============================================================
1739   15BA             ; ZERO THE FIRST 256 BLOCKS OF IDE STORAGE
1740   15BA             ;===============================================================
1741   15BA             ;
1742   15BA             S2I_ZERO:
1743   15BA 11 D9 19    	LD	DE,STR_ZERO		; ANNOUNCEMENT
1744   15BD CD A1 17    	CALL	WRITESTR		; PRINT IT
1745   15C0             ;
1746   15C0             	; INIT THE HBIOS DISK BUFFER WITH ALL ZEROES
1747   15C0 21 72 1B    	LD	HL,S2I_ZEROSEC		; SOURCE OF SECTOR DATA (ALL ZEROES)
1748   15C3 11 1A 91    	LD	DE,S2I_DSKBUF		; DESTINATION IS DISK BUFFER
1749   15C6 01 00 02    	LD	BC,512			; LENGTH OF A SECTOR
1750   15C9 ED B0       	LDIR				; COPY IT
1751   15CB             ;
1752   15CB             	; SETUP LOOP
1753   15CB 06 00       	LD	B,0			; B IS LOOP COUNTER
1754   15CD 21 00 00    	LD	HL,0			; START WITH BLOCK 0
1755   15D0 11 00 00    	LD	DE,0			; START WITH BLOCK 0
1756   15D3             ;
1757   15D3             S2I_ZERO1:	; LOOP, SAVE WORKING VARIABLES
1758   15D3 E5          	PUSH	HL			; SAVE HL
1759   15D4 D5          	PUSH	DE			; SAVE DE
1760   15D5 C5          	PUSH	BC			; SAVE BC
1761   15D6             ;
1762   15D6             	; DO THE HBIOS WRITE
1763   15D6 06 11       	LD	B,BF_DIOWR		; HBIOS WRITE FUNCTION
1764   15D8 3A 08 90    	LD	A,(S2I_DEVICE)
1765   15DB 4F          	LD	C,A
1766   15DC CF          	RST	08			; DO IT
1767   15DD             ;
1768   15DD CD DE 16    	CALL	PC_PERIOD		; PROGRESS FEEDBACK
1769   15E0             ;
1770   15E0             	; RECOVER WORKING VARIABLES
1771   15E0 C1          	POP	BC			; RECOVER BC
1772   15E1 D1          	POP	DE			; RECOVER DE
1773   15E2 E1          	POP	HL			; RECOVER HL
1774   15E3             ;
1775   15E3             	; INCREMENT BLOCK AND LOOP AS NEEDED
1776   15E3 13          	INC	DE			; NEXT BLOCK
1777   15E4 10 ED       	DJNZ	S2I_ZERO1		; LOOP UNTIL DONE
1778   15E6             ;
1779   15E6             	; DONE
1780   15E6             	;RET
1781   15E6 F7          	RST	30
1782   15E7             ;
1783   15E7             ;===============================================================
1784   15E7             ; READ A BLOCK OF DATA INTO BUFFER
1785   15E7             ;===============================================================
1786   15E7             ;
1787   15E7             S2I_RDBLK:
1788   15E7 11 ED 19    	LD	DE,STR_RDBLK		; ANNOUNCEMENT
1789   15EA CD A1 17    	CALL	WRITESTR		; PRINT IT
1790   15ED             ;
1791   15ED             	; DO THE HBIOS READ
1792   15ED 06 10       	LD	B,BF_DIORD		; HBIOS READ FUNCTION
1793   15EF 3A 08 90    	LD	A,(S2I_DEVICE)
1794   15F2 4F          	LD	C,A
1795   15F3 21 00 00    	LD	HL,0			; BLOCK 0
1796   15F6 11 00 00    	LD	DE,0			; BLOCK 0
1797   15F9 CF          	RST	08			; DO IT
1798   15FA             ;
1799   15FA             	;RET
1800   15FA F7          	RST	30
1801   15FB             ;
1802   15FB             ;===============================================================
1803   15FB             ; WRITE A BLOCK OF DATA INTO BUFFER
1804   15FB             ;===============================================================
1805   15FB             ;
1806   15FB             S2I_WRBLK:
1807   15FB             ;
1808   15FB 11 0C 1A    	LD	DE,STR_WRBLK		; ANNOUNCEMENT
1809   15FE CD A1 17    	CALL	WRITESTR		; PRINT IT
1810   1601             ;
1811   1601             	; DO THE HBIOS WRITE
1812   1601 21 00 00    	LD	HL,0			; BLOCK 0
1813   1604 11 00 00    	LD	DE,0			; BLOCK 0
1814   1607 06 11       	LD	B,BF_DIOWR		; HBIOS WRITE FUNCTION
1815   1609 3A 08 90    	LD	A,(S2I_DEVICE)
1816   160C 4F          	LD	C,A
1817   160D CF          	RST	08			; DO IT
1818   160E             ;
1819   160E             	;RET
1820   160E F7          	RST	30
1821   160F             ;
1822   160F             ;===============================================================
1823   160F             ; DISPLAY BUFFER DATA
1824   160F             ;===============================================================
1825   160F             ;
1826   160F 11 2A 1A    	LD	DE,STR_DUMP		; ANNOUNCEMENT
1827   1612 CD A1 17    	CALL	WRITESTR		; PRINT IT
1828   1615             ;
1829   1615             S2I_DUMP:
1830   1615 21 1A 91    	LD	HL,S2I_DSKBUF		; SET ADDRESS TO DUMP
1831   1618 11 1A 93    	LD	DE,S2I_DSKBUF + $200	; SET END ADDRESS
1832   161B             
1833   161B             DUMP_BUFFER:
1834   161B CD 1F 17    	CALL	NEWLINE			; NEXT LINE
1835   161E             BLKRD:
1836   161E CD 54 16    	CALL	PHL			; PRINT START LOCATION
1837   1621 0E 10       	LD	C,16			; SET FOR 16 LOCS
1838   1623 E5          	PUSH	HL			; SAVE STARTING HL
1839   1624             NXTONE:
1840   1624 7E          	LD 	A,(HL)			; GET BYTE
1841   1625 CD 51 17    	CALL	PRTHEXBYTE		; PRINT IT
1842   1628 CD D9 16    	CALL	PC_SPACE		;
1843   162B             UPDH:	
1844   162B 23          	INC	HL			; POINT NEXT
1845   162C 0D          	DEC	C			; DEC. LOC COUNT
1846   162D 20 F5       	JR	NZ,NXTONE		; IF LINE NOT DONE
1847   162F             					; NOW PRINT 'DECODED' DATA TO RIGHT OF DUMP
1848   162F             PCRLF:
1849   162F CD D9 16    	CALL	PC_SPACE		; SPACE IT
1850   1632 0E 10       	LD	C,16			; SET FOR 16 CHARS
1851   1634 E1          	POP	HL			; GET BACK START
1852   1635             PCRLF0:
1853   1635 7E          	LD	A,(HL)			; GET BYTE
1854   1636 E6 60       	AND	060H			; SEE IF A 'DOT'
1855   1638 7E          	LD	A,(HL)			; O.K. TO GET
1856   1639 20 02       	JR	NZ,PDOT			;
1857   163B             DOT:
1858   163B 3E 2E       	LD	A,2EH			; LOAD A DOT	
1859   163D             PDOT:
1860   163D CD 00 18    	CALL	COUT			; PRINT IT
1861   1640 23          	INC	HL			; 
1862   1641 7A          	LD	A,D			;
1863   1642 BC          	CP	H			;
1864   1643 20 05       	JR	NZ,UPDH1		;
1865   1645 7B          	LD	A,E			;
1866   1646 BD          	CP	L			;
1867   1647 CA 53 16    	JP	Z,DUMP_END		;
1868   164A             ;
1869   164A             ;IF BLOCK NOT DUMPED, DO NEXT CHARACTER OR LINE
1870   164A             UPDH1:
1871   164A 0D          	DEC	C			; DEC. CHAR COUNT
1872   164B 20 E8       	JR	NZ,PCRLF0		; DO NEXT
1873   164D             CONTD:
1874   164D CD 1F 17    	CALL	NEWLINE			; NEXT LINE
1875   1650 C3 1E 16    	JP	BLKRD			;
1876   1653             
1877   1653             DUMP_END:
1878   1653             	;RET
1879   1653 F7          	RST	30
1880   1654             ;
1881   1654             PHL:
1882   1654 7C          	LD	A,H			; GET HI BYTE
1883   1655 CD 51 17    	CALL	PRTHEXBYTE		; DO HEX OUT ROUTINE
1884   1658 7D          	LD	A,L			; GET LOW BYTE
1885   1659 CD 51 17    	CALL	PRTHEXBYTE		; HEX IT
1886   165C CD D9 16    	CALL	PC_SPACE		; 
1887   165F C9          	RET				; DONE  
1888   1660             ;
1889   1660             ;===============================================================
1890   1660             ; HELPER ROUTINES
1891   1660             ;===============================================================
1892   1660             ;
1893   1660             ; KEYCHK CHECKS FOR A KEYPRESS, RETURNS KEY VALUE IF PRESSED, OTHERWISE ZERO
1894   1660             ;
1895   1660             S2I_KEYCHK:
1896   1660 CD 1E 18    	CALL	CST	; KEY PENDING?
1897   1663 B7          	OR	A	; SET FLAGS
1898   1664 C8          	RET	Z	; RETURN IF NO KEY WAITING
1899   1665 CD 10 18    	CALL	CIN	; GET THE KEY
1900   1668 B7          	OR	A	; SET FLAGS
1901   1669 C9          	RET		; DONE
1902   166A             ;
1903   166A             ; PRINT A SNAPSHOT OF KEY SCSI CONTROLLER REGISTER VALUES
1904   166A             ; [CBS:BSR:CDR:MR]
1905   166A             ;
1906   166A             S2I_SNAP:
1907   166A             ;
1908   166A             	; SAVE CPU REGISTERS
1909   166A F5          	PUSH	AF		; SAVE AF
1910   166B C5          	PUSH	BC		; SAVE BC
1911   166C D5          	PUSH	DE		; SAVE DE
1912   166D E5          	PUSH	HL		; SAVE HL
1913   166E             ;
1914   166E             	; READ KEY REGISTERS AS QUICKLY AS POSSIBLE
1915   166E DB 8C       	IN	A,(S2I_CBS)	; GET CBS
1916   1670 47          	LD	B,A		; SAVE IN B
1917   1671 DB 8D       	IN	A,(S2I_BSR)	; GET BSR
1918   1673 4F          	LD	C,A		; SAVE IN C
1919   1674 DB 88       	IN	A,(S2I_CDR)	; GET CDR
1920   1676 57          	LD	D,A		; SAVE IN D
1921   1677 DB 8A       	IN	A,(S2I_MR)	; GET MR
1922   1679 5F          	LD	E,A		; SAVE IN E
1923   167A             ;
1924   167A             	; PRINT THE REGISTERS
1925   167A CD D9 16    	CALL	PC_SPACE	; SPACER
1926   167D CD ED 16    	CALL	PC_LBKT		; MARKER
1927   1680 78          	LD	A,B		; RECOVER CBS
1928   1681 CD 51 17    	CALL	PRTHEXBYTE	; PRINT CBS
1929   1684 CD E3 16    	CALL	PC_COLON	; SEPARATOR
1930   1687 79          	LD	A,C		; RECOVER BSR
1931   1688 CD 51 17    	CALL	PRTHEXBYTE	; PRINT BSR
1932   168B CD E3 16    	CALL	PC_COLON	; SEPARATOR
1933   168E 7A          	LD	A,D		; RECOVER CDR
1934   168F CD 51 17    	CALL	PRTHEXBYTE	; PRINT CDR
1935   1692 CD E3 16    	CALL	PC_COLON	; SEPARATOR
1936   1695 7B          	LD	A,E		; RECOVER MR
1937   1696 CD 51 17    	CALL	PRTHEXBYTE	; PRINT MR
1938   1699 CD F2 16    	CALL	PC_RBKT		; MARKER
1939   169C             ;
1940   169C             	; RESTORE CPU REGISTERS AND RETURN
1941   169C E1          	POP	HL		; RECOVER HL
1942   169D D1          	POP	DE		; RECOVER DE
1943   169E C1          	POP	BC		; RECOVER BC
1944   169F F1          	POP	AF		; RECOVER AF
1945   16A0             ;
1946   16A0 C9          	RET
1947   16A1             ;
1948   16A1             ; PRINT A BUFFER AT HL THAT IS BC BYTES LONG
1949   16A1             ; PRINT NO MORE THAN 16 BYTES
1950   16A1             ;
1951   16A1             S2I_PRTBUF:
1952   16A1             ;
1953   16A1             	; SAVE STATE
1954   16A1 F5          	PUSH	AF
1955   16A2 C5          	PUSH	BC
1956   16A3 D5          	PUSH	DE
1957   16A4 E5          	PUSH	HL
1958   16A5             ;
1959   16A5             	; SETUP E AS LIMIT COUNTER
1960   16A5 1E 10       	LD	E,$10		; 16 BYTES MAX
1961   16A7             ;
1962   16A7             S2I_PRTBUF1:
1963   16A7             	; PRINT NEXT BYTE AND INCREMENT POINTER
1964   16A7 7E          	LD	A,(HL)
1965   16A8 CD 51 17    	CALL	PRTHEXBYTE
1966   16AB CD D9 16    	CALL	PC_SPACE
1967   16AE 23          	INC	HL
1968   16AF             ;
1969   16AF             	; MANAGE COUNTERS AND LOOP AS NEEDED
1970   16AF 1D          	DEC	E		; DECREMENT LIMIT COUNTER
1971   16B0 28 06       	JR	Z,S2I_PRTBUF2	; DONE IF ZERO
1972   16B2 05          	DEC	B		; DECREMENT INNER LOOP COUNTER
1973   16B3 20 F2       	JR	NZ,S2I_PRTBUF1	; DO INNER LOOP
1974   16B5 0D          	DEC	C		; DECREMENT OUTER LOOP COUNTER
1975   16B6 20 EF       	JR	NZ,S2I_PRTBUF1	; DO OUTER LOOP
1976   16B8             ;
1977   16B8             S2I_PRTBUF2:
1978   16B8             ;
1979   16B8             	; RESTORE STATE
1980   16B8 E1          	POP	HL
1981   16B9 D1          	POP	DE
1982   16BA C1          	POP	BC
1983   16BB F1          	POP	AF
1984   16BC             ;
1985   16BC C9          	RET
1986   16BD             ;
1987   16BD             ;
1988   16BD             ;
1989   16BD             S2I_DELAY512:
1990   16BD CD C0 16    	CALL	$+3
1991   16C0             S2I_DELAY256:
1992   16C0 CD C3 16    	CALL	$+3
1993   16C3             S2I_DELAY128:
1994   16C3 CD C6 16    	CALL	$+3
1995   16C6             S2I_DELAY64:
1996   16C6 CD C9 16    	CALL	$+3
1997   16C9             S2I_DELAY32:
1998   16C9 CD CC 16    	CALL	$+3
1999   16CC             S2I_DELAY16:
2000   16CC CD CF 16    	CALL	$+3
2001   16CF             S2I_DELAY8:
2002   16CF CD D2 16    	CALL	$+3
2003   16D2             S2I_DELAY4:
2004   16D2 CD D5 16    	CALL	$+3
2005   16D5             S2I_DELAY2:
2006   16D5 CD D8 16    	CALL	$+3
2007   16D8             S2I_DELAY1:
2008   16D8 C9          	RET
2009   16D9             ;
2010   16D9             ; UTILITY ROUTINES
2011   16D9             ;
2012   16D9             #DEFINE	CIOMODE_HBIOS
2013   16D9             #INCLUDE "util.asm"
0001+  16D9             ;
0002+  16D9             ;==================================================================================================
0003+  16D9             ; UTILITY FUNCTIONS
0004+  16D9             ;==================================================================================================
0005+  16D9             ;
0006+  16D9             ;
0007+  16D9             CHR_CR		.EQU	0DH
0008+  16D9             CHR_LF		.EQU	0AH
0009+  16D9             CHR_BS		.EQU	08H
0010+  16D9             CHR_ESC		.EQU	1BH
0011+  16D9             ;
0012+  16D9             ;__________________________________________________________________________________________________
0013+  16D9             ;
0014+  16D9             ; UTILITY PROCS TO PRINT SINGLE CHARACTERS WITHOUT TRASHING ANY REGISTERS
0015+  16D9             ;
0016+  16D9             PC_SPACE:
0017+  16D9 F5          	PUSH	AF
0018+  16DA 3E 20       	LD	A,' '
0019+  16DC 18 3C       	JR	PC_PRTCHR
0020+  16DE             
0021+  16DE             PC_PERIOD:
0022+  16DE F5          	PUSH	AF
0023+  16DF 3E 2E       	LD	A,'.'
0024+  16E1 18 37       	JR	PC_PRTCHR
0025+  16E3             
0026+  16E3             PC_COLON:
0027+  16E3 F5          	PUSH	AF
0028+  16E4 3E 3A       	LD	A,':'
0029+  16E6 18 32       	JR	PC_PRTCHR
0030+  16E8             
0031+  16E8             PC_COMMA:
0032+  16E8 F5          	PUSH	AF
0033+  16E9 3E 2C       	LD	A,','
0034+  16EB 18 2D       	JR	PC_PRTCHR
0035+  16ED             
0036+  16ED             PC_LBKT:
0037+  16ED F5          	PUSH	AF
0038+  16EE 3E 5B       	LD	A,'['
0039+  16F0 18 28       	JR	PC_PRTCHR
0040+  16F2             
0041+  16F2             PC_RBKT:
0042+  16F2 F5          	PUSH	AF
0043+  16F3 3E 5D       	LD	A,']'
0044+  16F5 18 23       	JR	PC_PRTCHR
0045+  16F7             
0046+  16F7             PC_LT:
0047+  16F7 F5          	PUSH	AF
0048+  16F8 3E 3C       	LD	A,'<'
0049+  16FA 18 1E       	JR	PC_PRTCHR
0050+  16FC             
0051+  16FC             PC_GT:
0052+  16FC F5          	PUSH	AF
0053+  16FD 3E 3E       	LD	A,'>'
0054+  16FF 18 19       	JR	PC_PRTCHR
0055+  1701             
0056+  1701             PC_LPAREN:
0057+  1701 F5          	PUSH	AF
0058+  1702 3E 28       	LD	A,'('
0059+  1704 18 14       	JR	PC_PRTCHR
0060+  1706             
0061+  1706             PC_RPAREN:
0062+  1706 F5          	PUSH	AF
0063+  1707 3E 29       	LD	A,')'
0064+  1709 18 0F       	JR	PC_PRTCHR
0065+  170B             
0066+  170B             PC_ASTERISK:
0067+  170B F5          	PUSH	AF
0068+  170C 3E 2A       	LD	A,'*'
0069+  170E 18 0A       	JR	PC_PRTCHR
0070+  1710             
0071+  1710             PC_CR:
0072+  1710 F5          	PUSH	AF
0073+  1711 3E 0D       	LD	A,CHR_CR
0074+  1713 18 05       	JR	PC_PRTCHR
0075+  1715             
0076+  1715             PC_LF:
0077+  1715 F5          	PUSH	AF
0078+  1716 3E 0A       	LD	A,CHR_LF
0079+  1718 18 00       	JR	PC_PRTCHR
0080+  171A             
0081+  171A             PC_PRTCHR:
0082+  171A CD 00 18    	CALL	COUT
0083+  171D F1          	POP	AF
0084+  171E C9          	RET
0085+  171F             
0086+  171F             NEWLINE:
0087+  171F CD 10 17    	CALL	PC_CR
0088+  1722 CD 15 17    	CALL	PC_LF
0089+  1725 C9          	RET
0090+  1726             ;
0091+  1726             ; PRINT A CHARACTER REFERENCED BY POINTER AT TOP OF STACK
0092+  1726             ; USAGE:
0093+  1726             ;   CALL PRTCH
0094+  1726             ;   .DB  'X'
0095+  1726             ;
0096+  1726             PRTCH:
0097+  1726 E3          	EX	(SP),HL
0098+  1727 F5          	PUSH	AF
0099+  1728 7E          	LD	A,(HL)
0100+  1729 CD 00 18    	CALL	COUT
0101+  172C F1          	POP	AF
0102+  172D 23          	INC	HL
0103+  172E E3          	EX	(SP),HL
0104+  172F C9          	RET
0105+  1730             ;
0106+  1730             ; PRINT A STRING AT ADDRESS SPECIFIED IN HL
0107+  1730             ; STRING MUST BE TERMINATED BY '$'
0108+  1730             ; USAGE:
0109+  1730             ;   LD	HL,MYSTR
0110+  1730             ;   CALL PRTSTR
0111+  1730             ;   ...
0112+  1730             ;   MYSTR: .DB  "HELLO$"
0113+  1730             ;
0114+  1730             PRTSTR:
0115+  1730 7E          	LD	A,(HL)
0116+  1731 23          	INC	HL
0117+  1732 FE 24       	CP	'$'
0118+  1734 C8          	RET	Z
0119+  1735 CD 00 18    	CALL	COUT
0120+  1738 18 F6       	JR	PRTSTR
0121+  173A             ;
0122+  173A             ; PRINT A STRING DIRECT: REFERENCED BY POINTER AT TOP OF STACK
0123+  173A             ; STRING MUST BE TERMINATED BY '$'
0124+  173A             ; USAGE:
0125+  173A             ;   CALL PRTSTR
0126+  173A             ;   .DB  "HELLO$"
0127+  173A             ;   ...
0128+  173A             ;
0129+  173A             PRTSTRD:
0130+  173A E3          	EX	(SP),HL
0131+  173B F5          	PUSH	AF
0132+  173C CD 30 17    	CALL	PRTSTR
0133+  173F F1          	POP	AF
0134+  1740 E3          	EX	(SP),HL
0135+  1741 C9          	RET
0136+  1742             ;
0137+  1742             ; PRINT A STRING INDIRECT: REFERENCED BY INDIRECT POINTER AT TOP OF STACK
0138+  1742             ; STRING MUST BE TERMINATED BY '$'
0139+  1742             ; USAGE:
0140+  1742             ;   CALL PRTSTRI(MYSTRING)
0141+  1742             ;   MYSTRING	.DB	"HELLO$"
0142+  1742             ;
0143+  1742             PRTSTRI:
0144+  1742 E3          	EX	(SP),HL
0145+  1743 F5          	PUSH	AF
0146+  1744 7E          	LD	A,(HL)
0147+  1745 23          	INC	HL
0148+  1746 E5          	PUSH	HL
0149+  1747 66          	LD	H,(HL)
0150+  1748 6F          	LD	L,A
0151+  1749 CD 30 17    	CALL	PRTSTR
0152+  174C E1          	POP	HL
0153+  174D 23          	INC	HL
0154+  174E F1          	POP	AF
0155+  174F E3          	EX	(SP),HL
0156+  1750 C9          	RET
0157+  1751             ;
0158+  1751             ; PRINT THE HEX BYTE VALUE IN A
0159+  1751             ;
0160+  1751             PRTHEXBYTE:
0161+  1751 F5          	PUSH	AF
0162+  1752 D5          	PUSH	DE
0163+  1753 CD 6C 17    	CALL	HEXASCII
0164+  1756 7A          	LD	A,D
0165+  1757 CD 00 18    	CALL	COUT
0166+  175A 7B          	LD	A,E
0167+  175B CD 00 18    	CALL	COUT
0168+  175E D1          	POP	DE
0169+  175F F1          	POP	AF
0170+  1760 C9          	RET
0171+  1761             ;
0172+  1761             ; PRINT THE HEX WORD VALUE IN BC
0173+  1761             ;
0174+  1761             PRTHEXWORD:
0175+  1761 F5          	PUSH	AF
0176+  1762 78          	LD	A,B
0177+  1763 CD 51 17    	CALL	PRTHEXBYTE
0178+  1766 79          	LD	A,C
0179+  1767 CD 51 17    	CALL	PRTHEXBYTE
0180+  176A F1          	POP	AF
0181+  176B C9          	RET
0182+  176C             ;
0183+  176C             ; CONVERT BINARY VALUE IN A TO ASCII HEX CHARACTERS IN DE
0184+  176C             ;
0185+  176C             HEXASCII:
0186+  176C 57          	LD	D,A
0187+  176D CD 7B 17    	CALL	HEXCONV
0188+  1770 5F          	LD	E,A
0189+  1771 7A          	LD	A,D
0190+  1772 07          	RLCA
0191+  1773 07          	RLCA
0192+  1774 07          	RLCA
0193+  1775 07          	RLCA
0194+  1776 CD 7B 17    	CALL	HEXCONV
0195+  1779 57          	LD	D,A
0196+  177A C9          	RET
0197+  177B             ;
0198+  177B             ; CONVERT LOW NIBBLE OF A TO ASCII HEX
0199+  177B             ;
0200+  177B             HEXCONV:
0201+  177B E6 0F       	AND	0FH	     ;LOW NIBBLE ONLY
0202+  177D C6 90       	ADD	A,90H
0203+  177F 27          	DAA	
0204+  1780 CE 40       	ADC	A,40H
0205+  1782 27          	DAA	
0206+  1783 C9          	RET	
0207+  1784             ;
0208+  1784             ; PRINT A BYTE BUFFER IN HEX POINTED TO BY DE
0209+  1784             ; REGISTER A HAS SIZE OF BUFFER
0210+  1784             ;
0211+  1784             PRTHEXBUF:
0212+  1784 FE 00       	CP	0		; EMPTY BUFFER?
0213+  1786 CA 97 17    	JP	Z,PRTHEXBUF2
0214+  1789             	
0215+  1789 47          	LD	B,A
0216+  178A             PRTHEXBUF1:
0217+  178A CD D9 16    	CALL	PC_SPACE
0218+  178D 1A          	LD	A,(DE)
0219+  178E CD 51 17    	CALL	PRTHEXBYTE
0220+  1791 13          	INC	DE
0221+  1792 10 F6       	DJNZ	PRTHEXBUF1
0222+  1794 C3 A0 17    	JP	PRTHEXBUFX
0223+  1797             	
0224+  1797             PRTHEXBUF2:
0225+  1797 CD D9 16    	CALL	PC_SPACE
0226+  179A 11 B2 18    	LD	DE,STR_EMPTY
0227+  179D CD A1 17    	CALL	WRITESTR
0228+  17A0             
0229+  17A0             PRTHEXBUFX:
0230+  17A0 C9          	RET
0231+  17A1             ;
0232+  17A1             ; OUTPUT A '$' TERMINATED STRING
0233+  17A1             ;
0234+  17A1             WRITESTR:
0235+  17A1 F5          	PUSH	AF
0236+  17A2             WRITESTR1:
0237+  17A2 1A          	LD	A,(DE)
0238+  17A3 FE 24       	CP	'$'			; TEST FOR STRING TERMINATOR
0239+  17A5 CA AF 17    	JP	Z,WRITESTR2
0240+  17A8 CD 00 18    	CALL	COUT
0241+  17AB 13          	INC	DE
0242+  17AC C3 A2 17    	JP	WRITESTR1
0243+  17AF             WRITESTR2:
0244+  17AF F1          	POP	AF
0245+  17B0 C9          	RET
0246+  17B1             ;
0247+  17B1             ; PANIC: TRY TO DUMP MACHINE STATE AND HALT
0248+  17B1             ;
0249+  17B1             PANIC:
0250+  17B1 E5          	PUSH	HL
0251+  17B2 D5          	PUSH	DE
0252+  17B3 C5          	PUSH	BC
0253+  17B4 F5          	PUSH	AF
0254+  17B5 11 2B 18    	LD	DE,STR_PANIC
0255+  17B8 CD A1 17    	CALL	WRITESTR
0256+  17BB 11 40 18    	LD	DE,STR_AF
0257+  17BE CD A1 17    	CALL	WRITESTR
0258+  17C1 C1          	POP	BC		; AF
0259+  17C2 CD 61 17    	CALL	PRTHEXWORD
0260+  17C5 11 45 18    	LD	DE,STR_BC
0261+  17C8 CD A1 17    	CALL	WRITESTR
0262+  17CB C1          	POP	BC		; BC
0263+  17CC CD 61 17    	CALL	PRTHEXWORD
0264+  17CF 11 4A 18    	LD	DE,STR_DE
0265+  17D2 CD A1 17    	CALL	WRITESTR
0266+  17D5 C1          	POP	BC		; DE
0267+  17D6 CD 61 17    	CALL	PRTHEXWORD
0268+  17D9 11 4F 18    	LD	DE,STR_HL
0269+  17DC CD A1 17    	CALL	WRITESTR
0270+  17DF C1          	POP	BC		; HL
0271+  17E0 CD 61 17    	CALL	PRTHEXWORD
0272+  17E3 11 54 18    	LD	DE,STR_PC
0273+  17E6 CD A1 17    	CALL	WRITESTR
0274+  17E9 C1          	POP	BC		; PC
0275+  17EA CD 61 17    	CALL	PRTHEXWORD
0276+  17ED 11 59 18    	LD	DE,STR_SP
0277+  17F0 CD A1 17    	CALL	WRITESTR
0278+  17F3 21 00 00    	LD	HL,0
0279+  17F6 39          	ADD	HL,SP		; SP
0280+  17F7 44          	LD	B,H
0281+  17F8 4D          	LD	C,L
0282+  17F9 CD 61 17    	CALL	PRTHEXWORD
0283+  17FC             	
0284+  17FC FF          	RST	38
0285+  17FD             	
0286+  17FD C3 00 00    	JP	0
0287+  1800             ;
0288+  1800             ;==================================================================================================
0289+  1800             ; CONSOLE CHARACTER I/O HELPER ROUTINES (REGISTERS PRESERVED)
0290+  1800             ;==================================================================================================
0291+  1800             ;
0292+  1800             ; OUTPUT CHARACTER FROM A
0293+  1800             COUT:
0294+  1800 F5          	PUSH	AF
0295+  1801 C5          	PUSH	BC
0296+  1802 D5          	PUSH	DE
0297+  1803 E5          	PUSH	HL
0298+  1804~            #IFDEF CIOMODE_CONSOLE
0299+  1804~              #DEFINE CIOMODE_NONDOS
0300+  1804~            	LD	E,A
0301+  1804~            	LD	A,(CONDEV)
0302+  1804~            	LD	C,A
0303+  1804~            	LD	B,BF_CIOOUT
0304+  1804~            	CALL	BIOS_DISPATCH
0305+  1804             #ENDIF
0306+  1804             #IFDEF CIOMODE_HBIOS
0307+  1804               #DEFINE CIOMODE_NONDOS
0308+  1804 5F          	LD	E,A
0309+  1805 3E 00       	LD	A,DEFCON
0310+  1807 4F          	LD	C,A
0311+  1808 06 01       	LD	B,BF_CIOOUT
0312+  180A CF          	RST	08
0313+  180B             #ENDIF
0314+  180B~            #IFDEF CIOMODE_CBIOS
0315+  180B~              #DEFINE CIOMODE_NONDOS
0316+  180B~            	LD	C,A
0317+  180B~            	CALL	CBIOS_CONOUT
0318+  180B             #ENDIF
0319+  180B~            #IFNDEF CIOMODE_NONDOS
0320+  180B~            	LD	E,A
0321+  180B~            	LD	C,03H
0322+  180B~            	CALL	0005H
0323+  180B             #ENDIF
0324+  180B E1          	POP	HL
0325+  180C D1          	POP	DE
0326+  180D C1          	POP	BC
0327+  180E F1          	POP	AF
0328+  180F C9          	RET
0329+  1810             ;
0330+  1810             ; INPUT CHARACTER TO A
0331+  1810             ;
0332+  1810             CIN:
0333+  1810 C5          	PUSH	BC
0334+  1811 D5          	PUSH	DE
0335+  1812 E5          	PUSH	HL
0336+  1813~            #IFDEF CIOMODE_CONSOLE
0337+  1813~              #DEFINE CIOMODE_NONDOS
0338+  1813~            	LD	A,(CONDEV)
0339+  1813~            	LD	C,A
0340+  1813~            	LD	B,BF_CIOIN
0341+  1813~            	CALL	BIOS_DISPATCH
0342+  1813~            	LD	A,E
0343+  1813             #ENDIF
0344+  1813             #IFDEF CIOMODE_HBIOS
0345+  1813               #DEFINE CIOMODE_NONDOS
0346+  1813 3E 00       	LD	A,DEFCON
0347+  1815 4F          	LD	C,A
0348+  1816 06 00       	LD	B,BF_CIOIN
0349+  1818 CF          	RST	08
0350+  1819 7B          	LD	A,E
0351+  181A             #ENDIF
0352+  181A~            #IFDEF CIOMODE_CBIOS
0353+  181A~              #DEFINE CIOMODE_NONDOS
0354+  181A~            	CALL	CBIOS_CONIN
0355+  181A             #ENDIF
0356+  181A~            #IFNDEF CIOMODE_NONDOS
0357+  181A~            	LD	C,01H
0358+  181A~            	CALL	0005H
0359+  181A             #ENDIF
0360+  181A E1          	POP	HL
0361+  181B D1          	POP	DE
0362+  181C C1          	POP	BC
0363+  181D C9          	RET
0364+  181E             ;
0365+  181E             ; RETURN INPUT STATUS IN A (0 = NO CHAR, !=0 CHAR WAITING)
0366+  181E             ;
0367+  181E             CST:
0368+  181E C5          	PUSH	BC
0369+  181F D5          	PUSH	DE
0370+  1820 E5          	PUSH	HL
0371+  1821~            #IFDEF CIOMODE_CONSOLE
0372+  1821~              #DEFINE CIOMODE_NONDOS
0373+  1821~            	LD	B,BF_CIOIST
0374+  1821~            	LD	A,(CONDEV)
0375+  1821~            	LD	C,A
0376+  1821~            	CALL	BIOS_DISPATCH
0377+  1821             #ENDIF
0378+  1821             #IFDEF CIOMODE_HBIOS
0379+  1821               #DEFINE CIOMODE_NONDOS
0380+  1821 06 02       	LD	B,BF_CIOIST
0381+  1823 3E 00       	LD	A,DEFCON
0382+  1825 4F          	LD	C,A
0383+  1826 CF          	RST	08
0384+  1827             #ENDIF
0385+  1827~            #IFDEF CIOMODE_CBIOS
0386+  1827~              #DEFINE CIOMODE_NONDOS
0387+  1827~            	CALL	CBIOS_CONST
0388+  1827             #ENDIF
0389+  1827~            #IFNDEF CIOMODE_NONDOS
0390+  1827~            	LD	C,0BH
0391+  1827~            	CALL	0005H
0392+  1827             #ENDIF
0393+  1827 E1          	POP	HL
0394+  1828 D1          	POP	DE
0395+  1829 C1          	POP	BC
0396+  182A C9          	RET
0397+  182B             ;
0398+  182B 0D 0A 0D 0A STR_PANIC	.DB	"\r\n\r\n>>> FATAL ERROR:$"
0398+  182F 3E 3E 3E 20 
0398+  1833 46 41 54 41 
0398+  1837 4C 20 45 52 
0398+  183B 52 4F 52 3A 
0398+  183F 24 
0399+  1840 20 41 46 3D STR_AF		.DB	" AF=$"
0399+  1844 24 
0400+  1845 20 42 43 3D STR_BC		.DB	" BC=$"
0400+  1849 24 
0401+  184A 20 44 45 3D STR_DE		.DB	" DE=$"
0401+  184E 24 
0402+  184F 20 48 4C 3D STR_HL		.DB	" HL=$"
0402+  1853 24 
0403+  1854 20 50 43 3D STR_PC		.DB	" PC=$"
0403+  1858 24 
0404+  1859 20 53 50 3D STR_SP		.DB	" SP=$"
0404+  185D 24 
0405+  185E             ;
0406+  185E             ; INDIRECT JUMP TO ADDRESS IN HL
0407+  185E             ;
0408+  185E             ;   MOSTLY USEFUL TO PERFORM AN INDIRECT CALL LIKE:
0409+  185E             ;     LD	HL,xxxx
0410+  185E             ;     CALL	JPHL
0411+  185E             ;
0412+  185E E9          JPHL:	JP	(HL)
0413+  185F             ;
0414+  185F             ; DELAY ABOUT 25us (100 TSTATES INCLUDING CALL AND RET)
0415+  185F             ;
0416+  185F             ;	TOTAL T STATES = ((B*13) + 51)
0417+  185F             ;	4MHZ CPU, B=4, 103 T STATES = 25.75us
0418+  185F             ;	8MHZ CPU, B=12, 207 TSTATES = 25.875us
0419+  185F             ;	B = ((2 * FREQ) - 4)
0420+  185F             ;
0421+  185F             DELAY:					; 17 T STATES (FOR CALL)
0422+  185F C5          	PUSH	BC			; 11 T STATES
0423+  1860 06 0C       	LD	B,((CPUFREQ * 2)  - 4)	; 8 T STATES
0424+  1862 10 FE       	DJNZ	$			; (B*13) - 5 T STATES
0425+  1864 C1          	POP	BC			; 10 T STATES
0426+  1865 C9          	RET				; 10 T STATES
0427+  1866             ;
0428+  1866             ; DELAY 25us * VALUE IN DE (VARIABLE DELAY)
0429+  1866             ;
0430+  1866             VDELAY:
0431+  1866 CD 5F 18    	CALL	DELAY
0432+  1869 1B          	DEC	DE
0433+  186A 7A          	LD	A,D
0434+  186B B3          	OR	E
0435+  186C C2 66 18    	JP	NZ,VDELAY
0436+  186F C9          	RET
0437+  1870             ;
0438+  1870             ; DELAY ABOUT 0.5 SECONDS = 25us * 20,000
0439+  1870             ;
0440+  1870             LDELAY:
0441+  1870 D5          	PUSH	DE
0442+  1871 11 20 4E    	LD	DE,20000
0443+  1874 CD 66 18    	CALL	VDELAY
0444+  1877 D1          	POP	DE
0445+  1878 C9          	RET
0446+  1879             ;
0447+  1879             ; MULTIPLY 8-BIT VALUES
0448+  1879             ; IN:  MULTIPLY H BY E
0449+  1879             ; OUT: HL = RESULT, E = 0, B = 0
0450+  1879             ;
0451+  1879             MULT8:
0452+  1879 16 00       	LD D,0
0453+  187B 6A          	LD L,D
0454+  187C 06 08       	LD B,8
0455+  187E             MULT8_LOOP:
0456+  187E 29          	ADD HL,HL
0457+  187F 30 01       	JR NC,MULT8_NOADD
0458+  1881 19          	ADD HL,DE
0459+  1882             MULT8_NOADD:
0460+  1882 10 FA       	DJNZ MULT8_LOOP
0461+  1884 C9          	RET
0462+  1885             ;
0463+  1885             ; PRINT VALUE OF HL IN DECIMAL WITH LEADING ZERO SUPPRESSION
0464+  1885             ;
0465+  1885             PRTDEC:
0466+  1885 1E 30       	LD	E,'0'
0467+  1887 01 F0 D8    	LD	BC,-10000
0468+  188A CD A2 18    	CALL	PRTDEC1
0469+  188D 01 18 FC    	LD	BC,-1000
0470+  1890 CD A2 18    	CALL	PRTDEC1
0471+  1893 01 9C FF    	LD	BC,-100
0472+  1896 CD A2 18    	CALL	PRTDEC1
0473+  1899 0E F6       	LD	C,-10
0474+  189B CD A2 18    	CALL	PRTDEC1
0475+  189E 1E 00       	LD	E,0
0476+  18A0 0E FF       	LD	C,-1
0477+  18A2             PRTDEC1:
0478+  18A2 3E 2F       	LD	A,'0' - 1
0479+  18A4             PRTDEC2:
0480+  18A4 3C          	INC	A
0481+  18A5 09          	ADD	HL,BC
0482+  18A6 38 FC       	JR	C,PRTDEC2
0483+  18A8 ED 42       	SBC	HL,BC
0484+  18AA BB          	CP	E
0485+  18AB C8          	RET	Z
0486+  18AC 1E 00       	LD	E,0
0487+  18AE CD 00 18    	CALL	COUT
0488+  18B1 C9          	RET
0489+  18B2             ;
0490+  18B2             ;==================================================================================================
0491+  18B2             ; DSKY KEYBOARD ROUTINES
0492+  18B2             ;==================================================================================================
0493+  18B2             ;
0494+  18B2~            #IF (DSKYENABLE)
0495+  18B2~            ;
0496+  18B2~            ;    _____C0______C1______C2______C3__
0497+  18B2~            ;B5 |	$20 D	$60 E	$A0 F	$E0 BO
0498+  18B2~            ;B4 |	$10 A	$50 B	$90 C	$D0 GO
0499+  18B2~            ;B3 |	$08 7	$48 8	$88 9	$C8 EX
0500+  18B2~            ;B2 |	$04 4	$44 5	$84 6	$C4 DE
0501+  18B2~            ;B1 |	$02 1	$42 2	$82 3	$C2 EN
0502+  18B2~            ;B0 |	$01 FW	$41 0	$81 BK	$C1 CL
0503+  18B2~            ;
0504+  18B2~            KY_0	.EQU	000H
0505+  18B2~            KY_1	.EQU	001H
0506+  18B2~            KY_2	.EQU	002H
0507+  18B2~            KY_3	.EQU	003H
0508+  18B2~            KY_4	.EQU	004H
0509+  18B2~            KY_5	.EQU	005H
0510+  18B2~            KY_6	.EQU	006H
0511+  18B2~            KY_7	.EQU	007H
0512+  18B2~            KY_8	.EQU	008H
0513+  18B2~            KY_9	.EQU	009H
0514+  18B2~            KY_A	.EQU	00AH
0515+  18B2~            KY_B	.EQU	00BH
0516+  18B2~            KY_C	.EQU	00CH
0517+  18B2~            KY_D	.EQU	00DH
0518+  18B2~            KY_E	.EQU	00EH
0519+  18B2~            KY_F	.EQU	00FH
0520+  18B2~            KY_FW	.EQU	010H	; FORWARD
0521+  18B2~            KY_BK	.EQU	011H	; BACKWARD
0522+  18B2~            KY_CL	.EQU	012H	; CLEAR
0523+  18B2~            KY_EN	.EQU	013H	; ENTER
0524+  18B2~            KY_DE	.EQU	014H	; DEPOSIT
0525+  18B2~            KY_EX	.EQU	015H	; EXAMINE
0526+  18B2~            KY_GO	.EQU	016H	; GO
0527+  18B2~            KY_BO	.EQU	017H	; BOOT
0528+  18B2~            ;
0529+  18B2~            ;__DSKY_INIT_________________________________________________________________________________________
0530+  18B2~            ;
0531+  18B2~            ;  CHECK FOR KEY PRESS, SAVE RAW VALUE, RETURN STATUS
0532+  18B2~            ;____________________________________________________________________________________________________
0533+  18B2~            ;
0534+  18B2~            DSKY_INIT:
0535+  18B2~            	LD	A,82H
0536+  18B2~            	OUT 	(PPIX),A
0537+  18B2~            	LD	A,30H			;disable /CS on PPISD card(s)
0538+  18B2~            	OUT	(PPIC),A
0539+  18B2~            	XOR	A
0540+  18B2~            	LD	(KY_BUF),A
0541+  18B2~            	RET
0542+  18B2~            #IFDEF DSKY_KBD
0543+  18B2~            ;
0544+  18B2~            ;__KY_STAT___________________________________________________________________________________________
0545+  18B2~            ;
0546+  18B2~            ;  CHECK FOR KEY PRESS, SAVE RAW VALUE, RETURN STATUS
0547+  18B2~            ;____________________________________________________________________________________________________
0548+  18B2~            ;
0549+  18B2~            KY_STAT:
0550+  18B2~            	; IF WE ALREADY HAVE A KEY, RETURN WITH NZ
0551+  18B2~            	LD	A,(KY_BUF)
0552+  18B2~            	OR	A
0553+  18B2~            	RET	NZ
0554+  18B2~            	; SCAN FOR A KEYPRESS, A=0 NO DATA OR A=RAW BYTE
0555+  18B2~            	CALL	KY_SCAN			; SCAN KB ONCE
0556+  18B2~            	OR	A			; SET FLAGS
0557+  18B2~            	RET	Z			; NOTHING FOUND, GET OUT
0558+  18B2~            	LD	(KY_BUF),A		; SAVE RAW KEYCODE
0559+  18B2~            	RET				; RETURN
0560+  18B2~            ;
0561+  18B2~            ;__KY_GET____________________________________________________________________________________________
0562+  18B2~            ;
0563+  18B2~            ;  GET A SINGLE KEY (WAIT FOR ONE IF NECESSARY)
0564+  18B2~            ;____________________________________________________________________________________________________
0565+  18B2~            ;
0566+  18B2~            KY_GET:
0567+  18B2~            	; SEE IF WE ALREADY HAVE A KEY SAVED, GO TO DECODE IF SO
0568+  18B2~            	LD	A,(KY_BUF)
0569+  18B2~            	OR	A
0570+  18B2~            	JR	NZ,KY_DECODE
0571+  18B2~            	; NO KEY SAVED, WAIT FOR ONE
0572+  18B2~            KY_STATLOOP:
0573+  18B2~            	CALL	KY_STAT
0574+  18B2~            	OR	A
0575+  18B2~            	JR	Z,KY_STATLOOP
0576+  18B2~            	; DECODE THE RAW VALUE
0577+  18B2~            KY_DECODE:
0578+  18B2~            	LD	D,00H
0579+  18B2~            	LD	HL,KY_KEYMAP		; POINT TO BEGINNING OF TABLE	
0580+  18B2~            KY_GET_LOOP:
0581+  18B2~            	CP	(HL)			; MATCH?
0582+  18B2~            	JR	Z,KY_GET_DONE		; FOUND, DONE
0583+  18B2~            	INC	HL
0584+  18B2~            	INC	D			; D + 1
0585+  18B2~            	JR	NZ,KY_GET_LOOP		; NOT FOUND, LOOP UNTIL EOT			
0586+  18B2~            KY_GET_DONE:
0587+  18B2~            	; CLEAR OUT KEY_BUF
0588+  18B2~            	XOR	A
0589+  18B2~            	LD	(KY_BUF),A
0590+  18B2~            	; RETURN THE INDEX POSITION WHERE THE RAW VALUE WAS FOUND
0591+  18B2~            	LD	A,D
0592+  18B2~            	RET
0593+  18B2~            ;	
0594+  18B2~            ;__KY_SCAN____________________________________________________________________________________________
0595+  18B2~            ;
0596+  18B2~            ;  SCAN KEYBOARD MATRIX FOR AN INPUT
0597+  18B2~            ;____________________________________________________________________________________________________
0598+  18B2~            ;
0599+  18B2~            KY_SCAN:
0600+  18B2~            	LD	C,0000H
0601+  18B2~            	LD	A,41H | 30H		;  SCAN COL ONE
0602+  18B2~            	OUT 	(PPIC),A		;  SEND TO COLUMN LINES
0603+  18B2~            	CALL	DELAY			;  DEBOUNCE
0604+  18B2~            	IN	A,(PPIB)		;  GET ROWS
0605+  18B2~            	AND	7FH			;ignore PB7 for PPISD
0606+  18B2~            	CP	00H 			;  ANYTHING PRESSED?
0607+  18B2~            	JR	NZ,KY_SCAN_FOUND	;  YES, EXIT 
0608+  18B2~            
0609+  18B2~            	LD	C,0040H
0610+  18B2~            	LD	A,42H | 30H		;  SCAN COL TWO
0611+  18B2~            	OUT 	(PPIC),A		;  SEND TO COLUMN LINES
0612+  18B2~            	CALL	DELAY			;  DEBOUNCE
0613+  18B2~            	IN	A,(PPIB)		;  GET ROWS
0614+  18B2~            	AND	7FH			;ignore PB7 for PPISD
0615+  18B2~            	CP	00H 			;  ANYTHING PRESSED?
0616+  18B2~            	JR	NZ,KY_SCAN_FOUND	;  YES, EXIT 
0617+  18B2~            
0618+  18B2~            	LD	C,0080H
0619+  18B2~            	LD	A,44H | 30H		;  SCAN COL THREE
0620+  18B2~            	OUT	(PPIC),A		;  SEND TO COLUMN LINES
0621+  18B2~            	CALL	DELAY			;  DEBOUNCE
0622+  18B2~            	IN	A,(PPIB)		;  GET ROWS
0623+  18B2~            	AND	7FH			;ignore PB7 for PPISD
0624+  18B2~            	CP	00H 			;  ANYTHING PRESSED?
0625+  18B2~            	JR	NZ,KY_SCAN_FOUND	;  YES, EXIT 
0626+  18B2~            
0627+  18B2~            	LD	C,00C0H			;
0628+  18B2~            	LD	A,48H | 30H		;  SCAN COL FOUR
0629+  18B2~            	OUT	(PPIC),A		;  SEND TO COLUMN LINES
0630+  18B2~            	CALL	DELAY			;  DEBOUNCE
0631+  18B2~            	IN	A,(PPIB)		;  GET ROWS
0632+  18B2~            	AND	7FH			;ignore PB7 for PPISD
0633+  18B2~            	CP	00H 			;  ANYTHING PRESSED?
0634+  18B2~            	JR	NZ,KY_SCAN_FOUND	;  YES, EXIT 
0635+  18B2~            
0636+  18B2~            	LD	A,040H | 30H		;  TURN OFF ALL COLUMNS
0637+  18B2~            	OUT	(PPIC),A		;  SEND TO COLUMN LINES
0638+  18B2~            	LD	A,00H			;  RETURN NULL
0639+  18B2~            	RET				;  EXIT
0640+  18B2~            
0641+  18B2~            KY_SCAN_FOUND:
0642+  18B2~            	AND	3FH			;  CLEAR TOP TWO BITS
0643+  18B2~            	OR	C			;  ADD IN ROW BITS 
0644+  18B2~            	LD	C,A			;  STORE VALUE
0645+  18B2~            
0646+  18B2~            	; WAIT FOR KEY TO BE RELEASED
0647+  18B2~            	LD	A,4FH | 30H		; SCAN ALL COL LINES
0648+  18B2~            	OUT	(PPIC),A		; SEND TO COLUMN LINES
0649+  18B2~            	CALL	DELAY			; DEBOUNCE
0650+  18B2~            KY_CLEAR_LOOP:				; WAIT FOR KEY TO CLEAR
0651+  18B2~            	IN	A,(PPIB)		; GET ROWS
0652+  18B2~            	AND	7FH			;ignore PB7 for PPISD
0653+  18B2~            	CP	00H 			; ANYTHING PRESSED?
0654+  18B2~            	JR	NZ,KY_CLEAR_LOOP	; YES, LOOP UNTIL KEY RELEASED
0655+  18B2~            
0656+  18B2~            	LD	A,040H | 30H		;  TURN OFF ALL COLUMNS
0657+  18B2~            	OUT 	(PPIC),A		;  SEND TO COLUMN LINES
0658+  18B2~            
0659+  18B2~            	LD	A,C			;  RESTORE VALUE
0660+  18B2~            	RET
0661+  18B2~            ;
0662+  18B2~            ;_KEYMAP_TABLE_____________________________________________________________________________________________________________
0663+  18B2~            ; 
0664+  18B2~            KY_KEYMAP:
0665+  18B2~            ;               0    1    2    3    4    5    6    7
0666+  18B2~            	.DB	041H,002H,042H,082H,004H,044H,084H,008H
0667+  18B2~            ;               8    9    A    B    C    D    E    F
0668+  18B2~            	.DB	048H,088H,010H,050H,090H,020H,060H,0A0H
0669+  18B2~            ;               FW   BK   CL   EN   DE   EX   GO   BO
0670+  18B2~            	.DB	001H,081H,0C1H,0C2H,0C4H,0C8H,0D0H,0E0H
0671+  18B2~            #ENDIF	; DSKY_KBD
0672+  18B2~            ;
0673+  18B2~            ;==================================================================================================
0674+  18B2~            ; DSKY HEX DISPLAY
0675+  18B2~            ;==================================================================================================
0676+  18B2~            ;
0677+  18B2~            DSKY_HEXOUT:
0678+  18B2~            	LD	B,DSKY_HEXBUFLEN
0679+  18B2~            	LD	HL,DSKY_BUF
0680+  18B2~            	LD	DE,DSKY_HEXBUF
0681+  18B2~            DSKY_HEXOUT1:
0682+  18B2~            	LD	A,(DE)		; FIRST NIBBLE
0683+  18B2~            	SRL	A
0684+  18B2~            	SRL	A
0685+  18B2~            	SRL	A
0686+  18B2~            	SRL	A
0687+  18B2~            	LD	(HL),A
0688+  18B2~            	INC	HL
0689+  18B2~            	LD	A,(DE)		; SECOND NIBBLE
0690+  18B2~            	AND	0FH
0691+  18B2~            	LD	(HL),A
0692+  18B2~            	INC	HL
0693+  18B2~            	INC	DE		; NEXT BYTE
0694+  18B2~            	DJNZ	DSKY_HEXOUT1
0695+  18B2~            
0696+  18B2~            	LD	A,82H			; SETUP PPI
0697+  18B2~            	OUT	(PPIX),A
0698+  18B2~            	CALL	DSKY_COFF
0699+  18B2~            	LD	A,0D0H			; 7218 -> (DATA COMING, HEXA DECODE)
0700+  18B2~            	OUT	(PPIA),A
0701+  18B2~            	CALL	DSKY_STROBEC
0702+  18B2~            
0703+  18B2~            	LD	HL,DSKY_BUF		; POINT TO START OF BUF
0704+  18B2~            	LD	B,DSKY_BUFLEN		; NUMBER OF DIGITS
0705+  18B2~            	LD	C,PPIA
0706+  18B2~            DSKY_HEXOUT2:
0707+  18B2~            	OUTI
0708+  18B2~            	JP	Z,DSKY_STROBE		; DO FINAL STROBE AND RETURN
0709+  18B2~            	CALL	DSKY_STROBE
0710+  18B2~            	JR	DSKY_HEXOUT2
0711+  18B2~            	
0712+  18B2~            DSKY_STROBEC:
0713+  18B2~            	LD	A,80H | 30H
0714+  18B2~            	JP	DSKY_STROBE0
0715+  18B2~            
0716+  18B2~            DSKY_STROBE:
0717+  18B2~            	LD	A,00H | 30H		; SET WRITE STROBE
0718+  18B2~            
0719+  18B2~            DSKY_STROBE0:
0720+  18B2~            	OUT	(PPIC),A		; OUT TO PORTC
0721+  18B2~            	CALL	DELAY			; DELAY
0722+  18B2~            DSKY_COFF
0723+  18B2~            	LD	A,40H | 30H		; SET CONTROL PORT OFF
0724+  18B2~            	OUT	(PPIC),A		; OUT TO PORTC
0725+  18B2~            	CALL	DELAY			; WAIT
0726+  18B2~            	RET
0727+  18B2             #ENDIF
0728+  18B2             ;
0729+  18B2             ;==================================================================================================
0730+  18B2             ; DATA
0731+  18B2             ;==================================================================================================
0732+  18B2             ;
0733+  18B2 3C 45 4D 50 STR_EMPTY	.TEXT	"<EMPTY>$"
0733+  18B6 54 59 3E 24 
0734+  18BA             ;
0735+  18BA 00          KY_BUF		.DB	0
0736+  18BB 00 00 00 00 DSKY_BUF:	.FILL	8,0
0736+  18BF 00 00 00 00 
0737+  18C3             DSKY_BUFLEN	.EQU	$ - DSKY_BUF
0738+  18C3 00 00 00 00 DSKY_HEXBUF	.FILL	4,0
0739+  18C7             DSKY_HEXBUFLEN	.EQU	$ - DSKY_HEXBUF
2014   18C7             ;
2015   18C7             ;===============================================================
2016   18C7             ; STATIC STORAGE
2017   18C7             ;===============================================================
2018   18C7             ;
2019   18C7 0D 0A 0D 0A STR_BANNER	.DB	"\r\n\r\n=== S2I Target Command Processor V", S2I_VERTAG, " ==="
2019   18CB 3D 3D 3D 20 
2019   18CF 53 32 49 20 
2019   18D3 54 61 72 67 
2019   18D7 65 74 20 43 
2019   18DB 6F 6D 6D 61 
2019   18DF 6E 64 20 50 
2019   18E3 72 6F 63 65 
2019   18E7 73 73 6F 72 
2019   18EB 20 56 30 2E 
2019   18EF 37 20 20 3D 
2019   18F3 3D 3D 
2020   18F5 0D 0A 50 72 		.DB	"\r\nPress <esc> for monitor$"
2020   18F9 65 73 73 20 
2020   18FD 3C 65 73 63 
2020   1901 3E 20 66 6F 
2020   1905 72 20 6D 6F 
2020   1909 6E 69 74 6F 
2020   190D 72 24 
2021   190F 0D 0A 0D 0A STR_DONE	.DB	"\r\n\r\nTerminating...$"
2021   1913 54 65 72 6D 
2021   1917 69 6E 61 74 
2021   191B 69 6E 67 2E 
2021   191F 2E 2E 24 
2022   1922 0D 0A 0D 0A STR_SELECT	.DB	"\r\n\r\nWaiting for selection...$"
2022   1926 57 61 69 74 
2022   192A 69 6E 67 20 
2022   192E 66 6F 72 20 
2022   1932 73 65 6C 65 
2022   1936 63 74 69 6F 
2022   193A 6E 2E 2E 2E 
2022   193E 24 
2023   193F 0D 0A 43 6F STR_CMD		.DB	"\r\nCommand: $"
2023   1943 6D 6D 61 6E 
2023   1947 64 3A 20 24 
2024   194B 0D 0A 44 61 STR_DATAIN	.DB	"\r\nData In: $"
2024   194F 74 61 20 49 
2024   1953 6E 3A 20 24 
2025   1957 0D 0A 44 61 STR_DATAOUT	.DB	"\r\nData Out: $"
2025   195B 74 61 20 4F 
2025   195F 75 74 3A 20 
2025   1963 24 
2026   1964 0D 0A 53 74 STR_STATUS	.DB	"\r\nStatus: $"
2026   1968 61 74 75 73 
2026   196C 3A 20 24 
2027   196F 0D 0A 4D 65 STR_MSGIN	.DB	"\r\nMessage In: $"
2027   1973 73 73 61 67 
2027   1977 65 20 49 6E 
2027   197B 3A 20 24 
2028   197E 0D 0A 4D 65 STR_MSGOUT	.DB	"\r\nMessage Out: $"
2028   1982 73 73 61 67 
2028   1986 65 20 4F 75 
2028   198A 74 3A 20 24 
2029   198E 0D 0A 0D 0A STR_BUSFREE	.DB	"\r\n\r\n*** Bus Free ***$"
2029   1992 2A 2A 2A 20 
2029   1996 42 75 73 20 
2029   199A 46 72 65 65 
2029   199E 20 2A 2A 2A 
2029   19A2 24 
2030   19A3 0D 0A 0D 0A STR_BUSRESET	.DB	"\r\n\r\n*** Bus Reset ***$"
2030   19A7 2A 2A 2A 20 
2030   19AB 42 75 73 20 
2030   19AF 52 65 73 65 
2030   19B3 74 20 2A 2A 
2030   19B7 2A 24 
2031   19B9 0D 0A 0D 0A STR_BUSRESINT	.DB	"\r\n\r\n*** Bus Reset Interrupt ***$"
2031   19BD 2A 2A 2A 20 
2031   19C1 42 75 73 20 
2031   19C5 52 65 73 65 
2031   19C9 74 20 49 6E 
2031   19CD 74 65 72 72 
2031   19D1 75 70 74 20 
2031   19D5 2A 2A 2A 24 
2032   19D9 0D 0A 5A 65 STR_ZERO	.DB	"\r\nZero storage...\r\n$"
2032   19DD 72 6F 20 73 
2032   19E1 74 6F 72 61 
2032   19E5 67 65 2E 2E 
2032   19E9 2E 0D 0A 24 
2033   19ED 0D 0A 52 65 STR_RDBLK	.DB	"\r\nRead block from storage...\r\n$"
2033   19F1 61 64 20 62 
2033   19F5 6C 6F 63 6B 
2033   19F9 20 66 72 6F 
2033   19FD 6D 20 73 74 
2033   1A01 6F 72 61 67 
2033   1A05 65 2E 2E 2E 
2033   1A09 0D 0A 24 
2034   1A0C 0D 0A 57 72 STR_WRBLK	.DB	"\r\nWrite block to storage...\r\n$"
2034   1A10 69 74 65 20 
2034   1A14 62 6C 6F 63 
2034   1A18 6B 20 74 6F 
2034   1A1C 20 73 74 6F 
2034   1A20 72 61 67 65 
2034   1A24 2E 2E 2E 0D 
2034   1A28 0A 24 
2035   1A2A 0D 0A 44 75 STR_DUMP	.DB	"\r\nDump data buffer...\r\n$"
2035   1A2E 6D 70 20 64 
2035   1A32 61 74 61 20 
2035   1A36 62 75 66 66 
2035   1A3A 65 72 2E 2E 
2035   1A3E 2E 0D 0A 24 
2036   1A42 0D 0A 43 6F STR_CONFIG	.DB	"\r\nConfig Byte=0x$"
2036   1A46 6E 66 69 67 
2036   1A4A 20 42 79 74 
2036   1A4E 65 3D 30 78 
2036   1A52 24 
2037   1A53 0D 0A 53 43 STR_CONFIG1	.DB	"\r\nSCSI ID=$"
2037   1A57 53 49 20 49 
2037   1A5B 44 3D 24 
2038   1A5E 2C 20 42 6C STR_CONFIG2	.DB	", Block Size=$"
2038   1A62 6F 63 6B 20 
2038   1A66 53 69 7A 65 
2038   1A6A 3D 24 
2039   1A6C 0D 0A 4C 55 STR_CONFIG3	.DB	"\r\nLUN COUNT=$"
2039   1A70 4E 20 43 4F 
2039   1A74 55 4E 54 3D 
2039   1A78 24 
2040   1A79 2C 20 4C 55 STR_CONFIG4	.DB	", LUN SIZE=$"
2040   1A7D 4E 20 53 49 
2040   1A81 5A 45 3D 24 
2041   1A85 4D 42 24    STR_CONFIG5	.DB	"MB$"
2042   1A88 35 31 32 20 STR_BLK512	.DB	"512 bytes$"
2042   1A8C 62 79 74 65 
2042   1A90 73 24 
2043   1A92 32 35 36 20 STR_BLK256	.DB	"256 bytes$"
2043   1A96 62 79 74 65 
2043   1A9A 73 24 
2044   1A9C 55 6E 6B 6E STR_BLKUNK	.DB	"Unknown$"
2044   1AA0 6F 77 6E 24 
2045   1AA4 0D 0A 44 65 STR_DBGLVL	.DB	"\r\nDebug Level: $"
2045   1AA8 62 75 67 20 
2045   1AAC 4C 65 76 65 
2045   1AB0 6C 3A 20 24 
2046   1AB4             ;
2047   1AB4             #IF (S2I_PDMA)
2048   1AB4 0D 0A 55 73 STR_XFRMODE	.DB	"\r\nUsing Pseudo DMA I/O$"
2048   1AB8 69 6E 67 20 
2048   1ABC 50 73 65 75 
2048   1AC0 64 6F 20 44 
2048   1AC4 4D 41 20 49 
2048   1AC8 2F 4F 24 
2049   1ACB~            #ELSE
2050   1ACB~            STR_XFRMODE	.DB	"\r\nUsing Polled I/O$"
2051   1ACB             #ENDIF
2052   1ACB             ;
2053   1ACB 0D 0A 44 61 STR_DEVIDE	.DB	"\r\nData storage on IDE device$"
2053   1ACF 74 61 20 73 
2053   1AD3 74 6F 72 61 
2053   1AD7 67 65 20 6F 
2053   1ADB 6E 20 49 44 
2053   1ADF 45 20 64 65 
2053   1AE3 76 69 63 65 
2053   1AE7 24 
2054   1AE8 0D 0A 44 61 STR_DEVSD	.DB	"\r\nData storage on SD Card device$"
2054   1AEC 74 61 20 73 
2054   1AF0 74 6F 72 61 
2054   1AF4 67 65 20 6F 
2054   1AF8 6E 20 53 44 
2054   1AFC 20 43 61 72 
2054   1B00 64 20 64 65 
2054   1B04 76 69 63 65 
2054   1B08 24 
2055   1B09 0D 0A 44 61 STR_DEVUNK	.DB	"\r\nData storage on Unknown device$"
2055   1B0D 74 61 20 73 
2055   1B11 74 6F 72 61 
2055   1B15 67 65 20 6F 
2055   1B19 6E 20 55 6E 
2055   1B1D 6B 6E 6F 77 
2055   1B21 6E 20 64 65 
2055   1B25 76 69 63 65 
2055   1B29 24 
2056   1B2A             ;
2057   1B2A 49 44 45    STR_CFGIDE	.DB	"IDE"
2058   1B2D 53 44 20    STR_CFGSD	.DB	"SD "
2059   1B30 3F 3F 3F    STR_CFGUNK	.DB	"???"
2060   1B33 44 42 47    STR_CFGDBG	.DB	"DBG"
2061   1B36             ;
2062   1B36             ;===============================================================
2063   1B36             ; DEVICE PERSONALITIES (CUSTOMIZED RESPONSE DATA)
2064   1B36             ;===============================================================
2065   1B36             ;
2066   1B36             ; N8VEM PERSONALITY (GENERIC 20MB DIRECT ACCESS STORAGE DEVICE)
2067   1B36             ;
2068   1B36             #IF (S2I_PER == S2I_PER_N8VEM)
2069   1B36             ;
2070   1B36 00 00 01 01 S2I_INQRESP		.DB	$00,$00,$01,$01
2071   1B3A 20 00 00 00 		 	.DB	032,$00,$00,$00		; ADDITIONAL LENGTH
2072   1B3E 4E 38 56 45 			.DB	"N8VEM   "		; VENDOR ID
2072   1B42 4D 20 20 20 
2073   1B46 53 32 49 20 			.DB	"S2I     "		; PRODUCT ID
2073   1B4A 20 20 20 20 
2074   1B4E 20 20 20 20 			.DB	"        "		; PRODUCT ID (CONT)
2074   1B52 20 20 20 20 
2075   1B56 30 2E 37 20 			.DB	S2I_VERTAG		; PRODUCT REVISION
2076   1B5A             S2I_INQRESPLEN		.EQU	$-S2I_INQRESP
2077   1B5A             ;
2078   1B5A             S2I_MAXBLK		.EQU	(S2I_LUNSIZ * 1024 * 2) - 1
2079   1B5A             S2I_CAPRESP512:
2080   1B5A 00          			.DB	(S2I_MAXBLK >> 24) & $FF
2081   1B5B 1F          			.DB	(S2I_MAXBLK >> 16) & $FF
2082   1B5C FF          			.DB	(S2I_MAXBLK >> 8) & $FF
2083   1B5D FF          			.DB	S2I_MAXBLK & $FF
2084   1B5E 00 00 02 00 			.DB	$00,$00,$02,$00		; BLOCK SIZE IN BYTES
2085   1B62             S2I_CAPRESPLEN		.EQU	$-S2I_CAPRESP512
2086   1B62             S2I_CAPRESP256:
2087   1B62 00          			.DB	(S2I_MAXBLK >> 24) & $FF
2088   1B63 1F          			.DB	(S2I_MAXBLK >> 16) & $FF
2089   1B64 FF          			.DB	(S2I_MAXBLK >> 8) & $FF
2090   1B65 FF          			.DB	S2I_MAXBLK & $FF
2091   1B66 00 00 01 00 			.DB	$00,$00,$01,$00		; BLOCK SIZE IN BYTES
2092   1B6A             ;
2093   1B6A             #ENDIF
2094   1B6A             ;
2095   1B6A             ; SEAGATE ST125N PERSONALITY
2096   1B6A             ;
2097   1B6A~            #IF (S2I_PER == S2I_PER_ST125N)
2098   1B6A~            ;
2099   1B6A~            S2I_INQRESP		.DB	$00, $00, $01, $01, $3C, $00, $00, $00, $53, $45, $41, $47, $41, $54, $45, $20	
2100   1B6A~            			.DB	$53, $54, $31, $32, $35, $4E, $20, $20, $20, $20, $20, $20, $20, $20, $20, $20	
2101   1B6A~            			.DB	$04, $78, $6A, $00, $20, $20, $31, $31, $31, $32, $34, $33, $31, $00, $00, $00	
2102   1B6A~            			.DB	$00, $00, $00, $00, $00, $00, $00, $00, $00, $00, $6C, $6C, $6C, $6C, $6C, $6C	
2103   1B6A~            			.DB	$6C, $6C, $00, $00, $00, $00, $00, $00, $00, $00, $00, $00, $00, $00, $00, $00	
2104   1B6A~            			.DB	$00, $00, $00, $00, $00, $00, $00, $00, $00
2105   1B6A~            S2I_INQRESPLEN		.EQU	$-S2I_INQRESP
2106   1B6A~            ;
2107   1B6A~            S2I_CAPRESP512		.DB	$00,$00,$A3,$C0		; LOGICAL BLOCK COUNT
2108   1B6A~            			.DB	$00,$00,$02,$00		; BLOCK SIZE IN BYTES
2109   1B6A~            S2I_CAPRESPLEN		.EQU	$-S2I_CAPRESP512
2110   1B6A~            S2I_CAPRESP256		.DB	$00,$00,$A3,$C0		; LOGICAL BLOCK COUNT
2111   1B6A~            			.DB	$00,$00,$01,$00		; BLOCK SIZE IN BYTES
2112   1B6A~            ;
2113   1B6A             #ENDIF
2114   1B6A             ;
2115   1B6A 70 00 00 00 S2I_SENSERESP		.DB	$70,$00,$00,$00
2116   1B6E 00 00 00 00 			.DB	$00,$00,$00,$00
2117   1B72             S2I_SENSERESPLEN	.EQU	$-S2I_SENSERESP
2118   1B72             ;
2119   1B72 00 00 00 00 S2I_ZEROSEC		.FILL	512,0
2119   1B76 00 00 00 00 
2119   1B7A 00 00 00 00 
2119   1B7E 00 00 00 00 
2119   1B82 00 00 00 00 
2119   1B86 00 00 00 00 
2119   1B8A 00 00 00 00 
2119   1B8E 00 00 00 00 
2119   1B92 00 00 00 00 
2119   1B96 00 00 00 00 
2119   1B9A 00 00 00 00 
2119   1B9E 00 00 00 00 
2119   1BA2 00 00 00 00 
2119   1BA6 00 00 00 00 
2119   1BAA 00 00 00 00 
2119   1BAE 00 00 00 00 
2119   1BB2 00 00 00 00 
2119   1BB6 00 00 00 00 
2119   1BBA 00 00 00 00 
2119   1BBE 00 00 00 00 
2119   1BC2 00 00 00 00 
2119   1BC6 00 00 00 00 
2119   1BCA 00 00 00 00 
2119   1BCE 00 00 00 00 
2119   1BD2 00 00 00 00 
2119   1BD6 00 00 00 00 
2119   1BDA 00 00 00 00 
2119   1BDE 00 00 00 00 
2119   1BE2 00 00 00 00 
2119   1BE6 00 00 00 00 
2119   1BEA 00 00 00 00 
2119   1BEE 00 00 00 00 
2119   1BF2 00 00 00 00 
2119   1BF6 00 00 00 00 
2119   1BFA 00 00 00 00 
2119   1BFE 00 00 00 00 
2119   1C02 00 00 00 00 
2119   1C06 00 00 00 00 
2119   1C0A 00 00 00 00 
2119   1C0E 00 00 00 00 
2119   1C12 00 00 00 00 
2119   1C16 00 00 00 00 
2119   1C1A 00 00 00 00 
2119   1C1E 00 00 00 00 
2119   1C22 00 00 00 00 
2119   1C26 00 00 00 00 
2119   1C2A 00 00 00 00 
2119   1C2E 00 00 00 00 
2119   1C32 00 00 00 00 
2119   1C36 00 00 00 00 
2119   1C3A 00 00 00 00 
2119   1C3E 00 00 00 00 
2119   1C42 00 00 00 00 
2119   1C46 00 00 00 00 
2119   1C4A 00 00 00 00 
2119   1C4E 00 00 00 00 
2119   1C52 00 00 00 00 
2119   1C56 00 00 00 00 
2119   1C5A 00 00 00 00 
2119   1C5E 00 00 00 00 
2119   1C62 00 00 00 00 
2119   1C66 00 00 00 00 
2119   1C6A 00 00 00 00 
2119   1C6E 00 00 00 00 
2119   1C72 00 00 00 00 
2119   1C76 00 00 00 00 
2119   1C7A 00 00 00 00 
2119   1C7E 00 00 00 00 
2119   1C82 00 00 00 00 
2119   1C86 00 00 00 00 
2119   1C8A 00 00 00 00 
2119   1C8E 00 00 00 00 
2119   1C92 00 00 00 00 
2119   1C96 00 00 00 00 
2119   1C9A 00 00 00 00 
2119   1C9E 00 00 00 00 
2119   1CA2 00 00 00 00 
2119   1CA6 00 00 00 00 
2119   1CAA 00 00 00 00 
2119   1CAE 00 00 00 00 
2119   1CB2 00 00 00 00 
2119   1CB6 00 00 00 00 
2119   1CBA 00 00 00 00 
2119   1CBE 00 00 00 00 
2119   1CC2 00 00 00 00 
2119   1CC6 00 00 00 00 
2119   1CCA 00 00 00 00 
2119   1CCE 00 00 00 00 
2119   1CD2 00 00 00 00 
2119   1CD6 00 00 00 00 
2119   1CDA 00 00 00 00 
2119   1CDE 00 00 00 00 
2119   1CE2 00 00 00 00 
2119   1CE6 00 00 00 00 
2119   1CEA 00 00 00 00 
2119   1CEE 00 00 00 00 
2119   1CF2 00 00 00 00 
2119   1CF6 00 00 00 00 
2119   1CFA 00 00 00 00 
2119   1CFE 00 00 00 00 
2119   1D02 00 00 00 00 
2119   1D06 00 00 00 00 
2119   1D0A 00 00 00 00 
2119   1D0E 00 00 00 00 
2119   1D12 00 00 00 00 
2119   1D16 00 00 00 00 
2119   1D1A 00 00 00 00 
2119   1D1E 00 00 00 00 
2119   1D22 00 00 00 00 
2119   1D26 00 00 00 00 
2119   1D2A 00 00 00 00 
2119   1D2E 00 00 00 00 
2119   1D32 00 00 00 00 
2119   1D36 00 00 00 00 
2119   1D3A 00 00 00 00 
2119   1D3E 00 00 00 00 
2119   1D42 00 00 00 00 
2119   1D46 00 00 00 00 
2119   1D4A 00 00 00 00 
2119   1D4E 00 00 00 00 
2119   1D52 00 00 00 00 
2119   1D56 00 00 00 00 
2119   1D5A 00 00 00 00 
2119   1D5E 00 00 00 00 
2119   1D62 00 00 00 00 
2119   1D66 00 00 00 00 
2119   1D6A 00 00 00 00 
2119   1D6E 00 00 00 00 
2120   1D72             ;
2121   1D72 FF FF FF FF 	.FILL	$6000 - $
2121   1D76 FF FF FF FF 
2121   1D7A FF FF FF FF 
2121   1D7E FF FF FF FF 
2121   1D82 FF FF FF FF 
2121   1D86 FF FF FF FF 
2121   1D8A FF FF FF FF 
2121   1D8E FF FF FF FF 
2121   1D92 FF FF FF FF 
2121   1D96 FF FF FF FF 
2121   1D9A FF FF FF FF 
2121   1D9E FF FF FF FF 
2121   1DA2 FF FF FF FF 
2121   1DA6 FF FF FF FF 
2121   1DAA FF FF FF FF 
2121   1DAE FF FF FF FF 
2121   1DB2 FF FF FF FF 
2121   1DB6 FF FF FF FF 
2121   1DBA FF FF FF FF 
2121   1DBE FF FF FF FF 
2121   1DC2 FF FF FF FF 
2121   1DC6 FF FF FF FF 
2121   1DCA FF FF FF FF 
2121   1DCE FF FF FF FF 
2121   1DD2 FF FF FF FF 
2121   1DD6 FF FF FF FF 
2121   1DDA FF FF FF FF 
2121   1DDE FF FF FF FF 
2121   1DE2 FF FF FF FF 
2121   1DE6 FF FF FF FF 
2121   1DEA FF FF FF FF 
2121   1DEE FF FF FF FF 
2121   1DF2 FF FF FF FF 
2121   1DF6 FF FF FF FF 
2121   1DFA FF FF FF FF 
2121   1DFE FF FF FF FF 
2121   1E02 FF FF FF FF 
2121   1E06 FF FF FF FF 
2121   1E0A FF FF FF FF 
2121   1E0E FF FF FF FF 
2121   1E12 FF FF FF FF 
2121   1E16 FF FF FF FF 
2121   1E1A FF FF FF FF 
2121   1E1E FF FF FF FF 
2121   1E22 FF FF FF FF 
2121   1E26 FF FF FF FF 
2121   1E2A FF FF FF FF 
2121   1E2E FF FF FF FF 
2121   1E32 FF FF FF FF 
2121   1E36 FF FF FF FF 
2121   1E3A FF FF FF FF 
2121   1E3E FF FF FF FF 
2121   1E42 FF FF FF FF 
2121   1E46 FF FF FF FF 
2121   1E4A FF FF FF FF 
2121   1E4E FF FF FF FF 
2121   1E52 FF FF FF FF 
2121   1E56 FF FF FF FF 
2121   1E5A FF FF FF FF 
2121   1E5E FF FF FF FF 
2121   1E62 FF FF FF FF 
2121   1E66 FF FF FF FF 
2121   1E6A FF FF FF FF 
2121   1E6E FF FF FF FF 
2121   1E72 FF FF FF FF 
2121   1E76 FF FF FF FF 
2121   1E7A FF FF FF FF 
2121   1E7E FF FF FF FF 
2121   1E82 FF FF FF FF 
2121   1E86 FF FF FF FF 
2121   1E8A FF FF FF FF 
2121   1E8E FF FF FF FF 
2121   1E92 FF FF FF FF 
2121   1E96 FF FF FF FF 
2121   1E9A FF FF FF FF 
2121   1E9E FF FF FF FF 
2121   1EA2 FF FF FF FF 
2121   1EA6 FF FF FF FF 
2121   1EAA FF FF FF FF 
2121   1EAE FF FF FF FF 
2121   1EB2 FF FF FF FF 
2121   1EB6 FF FF FF FF 
2121   1EBA FF FF FF FF 
2121   1EBE FF FF FF FF 
2121   1EC2 FF FF FF FF 
2121   1EC6 FF FF FF FF 
2121   1ECA FF FF FF FF 
2121   1ECE FF FF FF FF 
2121   1ED2 FF FF FF FF 
2121   1ED6 FF FF FF FF 
2121   1EDA FF FF FF FF 
2121   1EDE FF FF FF FF 
2121   1EE2 FF FF FF FF 
2121   1EE6 FF FF FF FF 
2121   1EEA FF FF FF FF 
2121   1EEE FF FF FF FF 
2121   1EF2 FF FF FF FF 
2121   1EF6 FF FF FF FF 
2121   1EFA FF FF FF FF 
2121   1EFE FF FF FF FF 
2121   1F02 FF FF FF FF 
2121   1F06 FF FF FF FF 
2121   1F0A FF FF FF FF 
2121   1F0E FF FF FF FF 
2121   1F12 FF FF FF FF 
2121   1F16 FF FF FF FF 
2121   1F1A FF FF FF FF 
2121   1F1E FF FF FF FF 
2121   1F22 FF FF FF FF 
2121   1F26 FF FF FF FF 
2121   1F2A FF FF FF FF 
2121   1F2E FF FF FF FF 
2121   1F32 FF FF FF FF 
2121   1F36 FF FF FF FF 
2121   1F3A FF FF FF FF 
2121   1F3E FF FF FF FF 
2121   1F42 FF FF FF FF 
2121   1F46 FF FF FF FF 
2121   1F4A FF FF FF FF 
2121   1F4E FF FF FF FF 
2121   1F52 FF FF FF FF 
2121   1F56 FF FF FF FF 
2121   1F5A FF FF FF FF 
2121   1F5E FF FF FF FF 
2121   1F62 FF FF FF FF 
2121   1F66 FF FF FF FF 
2121   1F6A FF FF FF FF 
2121   1F6E FF FF FF FF 
2121   1F72 FF FF FF FF 
2121   1F76 FF FF FF FF 
2121   1F7A FF FF FF FF 
2121   1F7E FF FF FF FF 
2121   1F82 FF FF FF FF 
2121   1F86 FF FF FF FF 
2121   1F8A FF FF FF FF 
2121   1F8E FF FF FF FF 
2121   1F92 FF FF FF FF 
2121   1F96 FF FF FF FF 
2121   1F9A FF FF FF FF 
2121   1F9E FF FF FF FF 
2121   1FA2 FF FF FF FF 
2121   1FA6 FF FF FF FF 
2121   1FAA FF FF FF FF 
2121   1FAE FF FF FF FF 
2121   1FB2 FF FF FF FF 
2121   1FB6 FF FF FF FF 
2121   1FBA FF FF FF FF 
2121   1FBE FF FF FF FF 
2121   1FC2 FF FF FF FF 
2121   1FC6 FF FF FF FF 
2121   1FCA FF FF FF FF 
2121   1FCE FF FF FF FF 
2121   1FD2 FF FF FF FF 
2121   1FD6 FF FF FF FF 
2121   1FDA FF FF FF FF 
2121   1FDE FF FF FF FF 
2121   1FE2 FF FF FF FF 
2121   1FE6 FF FF FF FF 
2121   1FEA FF FF FF FF 
2121   1FEE FF FF FF FF 
2121   1FF2 FF FF FF FF 
2121   1FF6 FF FF FF FF 
2121   1FFA FF FF FF FF 
2121   1FFE FF FF FF FF 
2121   2002 FF FF FF FF 
2121   2006 FF FF FF FF 
2121   200A FF FF FF FF 
2121   200E FF FF FF FF 
2121   2012 FF FF FF FF 
2121   2016 FF FF FF FF 
2121   201A FF FF FF FF 
2121   201E FF FF FF FF 
2121   2022 FF FF FF FF 
2121   2026 FF FF FF FF 
2121   202A FF FF FF FF 
2121   202E FF FF FF FF 
2121   2032 FF FF FF FF 
2121   2036 FF FF FF FF 
2121   203A FF FF FF FF 
2121   203E FF FF FF FF 
2121   2042 FF FF FF FF 
2121   2046 FF FF FF FF 
2121   204A FF FF FF FF 
2121   204E FF FF FF FF 
2121   2052 FF FF FF FF 
2121   2056 FF FF FF FF 
2121   205A FF FF FF FF 
2121   205E FF FF FF FF 
2121   2062 FF FF FF FF 
2121   2066 FF FF FF FF 
2121   206A FF FF FF FF 
2121   206E FF FF FF FF 
2121   2072 FF FF FF FF 
2121   2076 FF FF FF FF 
2121   207A FF FF FF FF 
2121   207E FF FF FF FF 
2121   2082 FF FF FF FF 
2121   2086 FF FF FF FF 
2121   208A FF FF FF FF 
2121   208E FF FF FF FF 
2121   2092 FF FF FF FF 
2121   2096 FF FF FF FF 
2121   209A FF FF FF FF 
2121   209E FF FF FF FF 
2121   20A2 FF FF FF FF 
2121   20A6 FF FF FF FF 
2121   20AA FF FF FF FF 
2121   20AE FF FF FF FF 
2121   20B2 FF FF FF FF 
2121   20B6 FF FF FF FF 
2121   20BA FF FF FF FF 
2121   20BE FF FF FF FF 
2121   20C2 FF FF FF FF 
2121   20C6 FF FF FF FF 
2121   20CA FF FF FF FF 
2121   20CE FF FF FF FF 
2121   20D2 FF FF FF FF 
2121   20D6 FF FF FF FF 
2121   20DA FF FF FF FF 
2121   20DE FF FF FF FF 
2121   20E2 FF FF FF FF 
2121   20E6 FF FF FF FF 
2121   20EA FF FF FF FF 
2121   20EE FF FF FF FF 
2121   20F2 FF FF FF FF 
2121   20F6 FF FF FF FF 
2121   20FA FF FF FF FF 
2121   20FE FF FF FF FF 
2121   2102 FF FF FF FF 
2121   2106 FF FF FF FF 
2121   210A FF FF FF FF 
2121   210E FF FF FF FF 
2121   2112 FF FF FF FF 
2121   2116 FF FF FF FF 
2121   211A FF FF FF FF 
2121   211E FF FF FF FF 
2121   2122 FF FF FF FF 
2121   2126 FF FF FF FF 
2121   212A FF FF FF FF 
2121   212E FF FF FF FF 
2121   2132 FF FF FF FF 
2121   2136 FF FF FF FF 
2121   213A FF FF FF FF 
2121   213E FF FF FF FF 
2121   2142 FF FF FF FF 
2121   2146 FF FF FF FF 
2121   214A FF FF FF FF 
2121   214E FF FF FF FF 
2121   2152 FF FF FF FF 
2121   2156 FF FF FF FF 
2121   215A FF FF FF FF 
2121   215E FF FF FF FF 
2121   2162 FF FF FF FF 
2121   2166 FF FF FF FF 
2121   216A FF FF FF FF 
2121   216E FF FF FF FF 
2121   2172 FF FF FF FF 
2121   2176 FF FF FF FF 
2121   217A FF FF FF FF 
2121   217E FF FF FF FF 
2121   2182 FF FF FF FF 
2121   2186 FF FF FF FF 
2121   218A FF FF FF FF 
2121   218E FF FF FF FF 
2121   2192 FF FF FF FF 
2121   2196 FF FF FF FF 
2121   219A FF FF FF FF 
2121   219E FF FF FF FF 
2121   21A2 FF FF FF FF 
2121   21A6 FF FF FF FF 
2121   21AA FF FF FF FF 
2121   21AE FF FF FF FF 
2121   21B2 FF FF FF FF 
2121   21B6 FF FF FF FF 
2121   21BA FF FF FF FF 
2121   21BE FF FF FF FF 
2121   21C2 FF FF FF FF 
2121   21C6 FF FF FF FF 
2121   21CA FF FF FF FF 
2121   21CE FF FF FF FF 
2121   21D2 FF FF FF FF 
2121   21D6 FF FF FF FF 
2121   21DA FF FF FF FF 
2121   21DE FF FF FF FF 
2121   21E2 FF FF FF FF 
2121   21E6 FF FF FF FF 
2121   21EA FF FF FF FF 
2121   21EE FF FF FF FF 
2121   21F2 FF FF FF FF 
2121   21F6 FF FF FF FF 
2121   21FA FF FF FF FF 
2121   21FE FF FF FF FF 
2121   2202 FF FF FF FF 
2121   2206 FF FF FF FF 
2121   220A FF FF FF FF 
2121   220E FF FF FF FF 
2121   2212 FF FF FF FF 
2121   2216 FF FF FF FF 
2121   221A FF FF FF FF 
2121   221E FF FF FF FF 
2121   2222 FF FF FF FF 
2121   2226 FF FF FF FF 
2121   222A FF FF FF FF 
2121   222E FF FF FF FF 
2121   2232 FF FF FF FF 
2121   2236 FF FF FF FF 
2121   223A FF FF FF FF 
2121   223E FF FF FF FF 
2121   2242 FF FF FF FF 
2121   2246 FF FF FF FF 
2121   224A FF FF FF FF 
2121   224E FF FF FF FF 
2121   2252 FF FF FF FF 
2121   2256 FF FF FF FF 
2121   225A FF FF FF FF 
2121   225E FF FF FF FF 
2121   2262 FF FF FF FF 
2121   2266 FF FF FF FF 
2121   226A FF FF FF FF 
2121   226E FF FF FF FF 
2121   2272 FF FF FF FF 
2121   2276 FF FF FF FF 
2121   227A FF FF FF FF 
2121   227E FF FF FF FF 
2121   2282 FF FF FF FF 
2121   2286 FF FF FF FF 
2121   228A FF FF FF FF 
2121   228E FF FF FF FF 
2121   2292 FF FF FF FF 
2121   2296 FF FF FF FF 
2121   229A FF FF FF FF 
2121   229E FF FF FF FF 
2121   22A2 FF FF FF FF 
2121   22A6 FF FF FF FF 
2121   22AA FF FF FF FF 
2121   22AE FF FF FF FF 
2121   22B2 FF FF FF FF 
2121   22B6 FF FF FF FF 
2121   22BA FF FF FF FF 
2121   22BE FF FF FF FF 
2121   22C2 FF FF FF FF 
2121   22C6 FF FF FF FF 
2121   22CA FF FF FF FF 
2121   22CE FF FF FF FF 
2121   22D2 FF FF FF FF 
2121   22D6 FF FF FF FF 
2121   22DA FF FF FF FF 
2121   22DE FF FF FF FF 
2121   22E2 FF FF FF FF 
2121   22E6 FF FF FF FF 
2121   22EA FF FF FF FF 
2121   22EE FF FF FF FF 
2121   22F2 FF FF FF FF 
2121   22F6 FF FF FF FF 
2121   22FA FF FF FF FF 
2121   22FE FF FF FF FF 
2121   2302 FF FF FF FF 
2121   2306 FF FF FF FF 
2121   230A FF FF FF FF 
2121   230E FF FF FF FF 
2121   2312 FF FF FF FF 
2121   2316 FF FF FF FF 
2121   231A FF FF FF FF 
2121   231E FF FF FF FF 
2121   2322 FF FF FF FF 
2121   2326 FF FF FF FF 
2121   232A FF FF FF FF 
2121   232E FF FF FF FF 
2121   2332 FF FF FF FF 
2121   2336 FF FF FF FF 
2121   233A FF FF FF FF 
2121   233E FF FF FF FF 
2121   2342 FF FF FF FF 
2121   2346 FF FF FF FF 
2121   234A FF FF FF FF 
2121   234E FF FF FF FF 
2121   2352 FF FF FF FF 
2121   2356 FF FF FF FF 
2121   235A FF FF FF FF 
2121   235E FF FF FF FF 
2121   2362 FF FF FF FF 
2121   2366 FF FF FF FF 
2121   236A FF FF FF FF 
2121   236E FF FF FF FF 
2121   2372 FF FF FF FF 
2121   2376 FF FF FF FF 
2121   237A FF FF FF FF 
2121   237E FF FF FF FF 
2121   2382 FF FF FF FF 
2121   2386 FF FF FF FF 
2121   238A FF FF FF FF 
2121   238E FF FF FF FF 
2121   2392 FF FF FF FF 
2121   2396 FF FF FF FF 
2121   239A FF FF FF FF 
2121   239E FF FF FF FF 
2121   23A2 FF FF FF FF 
2121   23A6 FF FF FF FF 
2121   23AA FF FF FF FF 
2121   23AE FF FF FF FF 
2121   23B2 FF FF FF FF 
2121   23B6 FF FF FF FF 
2121   23BA FF FF FF FF 
2121   23BE FF FF FF FF 
2121   23C2 FF FF FF FF 
2121   23C6 FF FF FF FF 
2121   23CA FF FF FF FF 
2121   23CE FF FF FF FF 
2121   23D2 FF FF FF FF 
2121   23D6 FF FF FF FF 
2121   23DA FF FF FF FF 
2121   23DE FF FF FF FF 
2121   23E2 FF FF FF FF 
2121   23E6 FF FF FF FF 
2121   23EA FF FF FF FF 
2121   23EE FF FF FF FF 
2121   23F2 FF FF FF FF 
2121   23F6 FF FF FF FF 
2121   23FA FF FF FF FF 
2121   23FE FF FF FF FF 
2121   2402 FF FF FF FF 
2121   2406 FF FF FF FF 
2121   240A FF FF FF FF 
2121   240E FF FF FF FF 
2121   2412 FF FF FF FF 
2121   2416 FF FF FF FF 
2121   241A FF FF FF FF 
2121   241E FF FF FF FF 
2121   2422 FF FF FF FF 
2121   2426 FF FF FF FF 
2121   242A FF FF FF FF 
2121   242E FF FF FF FF 
2121   2432 FF FF FF FF 
2121   2436 FF FF FF FF 
2121   243A FF FF FF FF 
2121   243E FF FF FF FF 
2121   2442 FF FF FF FF 
2121   2446 FF FF FF FF 
2121   244A FF FF FF FF 
2121   244E FF FF FF FF 
2121   2452 FF FF FF FF 
2121   2456 FF FF FF FF 
2121   245A FF FF FF FF 
2121   245E FF FF FF FF 
2121   2462 FF FF FF FF 
2121   2466 FF FF FF FF 
2121   246A FF FF FF FF 
2121   246E FF FF FF FF 
2121   2472 FF FF FF FF 
2121   2476 FF FF FF FF 
2121   247A FF FF FF FF 
2121   247E FF FF FF FF 
2121   2482 FF FF FF FF 
2121   2486 FF FF FF FF 
2121   248A FF FF FF FF 
2121   248E FF FF FF FF 
2121   2492 FF FF FF FF 
2121   2496 FF FF FF FF 
2121   249A FF FF FF FF 
2121   249E FF FF FF FF 
2121   24A2 FF FF FF FF 
2121   24A6 FF FF FF FF 
2121   24AA FF FF FF FF 
2121   24AE FF FF FF FF 
2121   24B2 FF FF FF FF 
2121   24B6 FF FF FF FF 
2121   24BA FF FF FF FF 
2121   24BE FF FF FF FF 
2121   24C2 FF FF FF FF 
2121   24C6 FF FF FF FF 
2121   24CA FF FF FF FF 
2121   24CE FF FF FF FF 
2121   24D2 FF FF FF FF 
2121   24D6 FF FF FF FF 
2121   24DA FF FF FF FF 
2121   24DE FF FF FF FF 
2121   24E2 FF FF FF FF 
2121   24E6 FF FF FF FF 
2121   24EA FF FF FF FF 
2121   24EE FF FF FF FF 
2121   24F2 FF FF FF FF 
2121   24F6 FF FF FF FF 
2121   24FA FF FF FF FF 
2121   24FE FF FF FF FF 
2121   2502 FF FF FF FF 
2121   2506 FF FF FF FF 
2121   250A FF FF FF FF 
2121   250E FF FF FF FF 
2121   2512 FF FF FF FF 
2121   2516 FF FF FF FF 
2121   251A FF FF FF FF 
2121   251E FF FF FF FF 
2121   2522 FF FF FF FF 
2121   2526 FF FF FF FF 
2121   252A FF FF FF FF 
2121   252E FF FF FF FF 
2121   2532 FF FF FF FF 
2121   2536 FF FF FF FF 
2121   253A FF FF FF FF 
2121   253E FF FF FF FF 
2121   2542 FF FF FF FF 
2121   2546 FF FF FF FF 
2121   254A FF FF FF FF 
2121   254E FF FF FF FF 
2121   2552 FF FF FF FF 
2121   2556 FF FF FF FF 
2121   255A FF FF FF FF 
2121   255E FF FF FF FF 
2121   2562 FF FF FF FF 
2121   2566 FF FF FF FF 
2121   256A FF FF FF FF 
2121   256E FF FF FF FF 
2121   2572 FF FF FF FF 
2121   2576 FF FF FF FF 
2121   257A FF FF FF FF 
2121   257E FF FF FF FF 
2121   2582 FF FF FF FF 
2121   2586 FF FF FF FF 
2121   258A FF FF FF FF 
2121   258E FF FF FF FF 
2121   2592 FF FF FF FF 
2121   2596 FF FF FF FF 
2121   259A FF FF FF FF 
2121   259E FF FF FF FF 
2121   25A2 FF FF FF FF 
2121   25A6 FF FF FF FF 
2121   25AA FF FF FF FF 
2121   25AE FF FF FF FF 
2121   25B2 FF FF FF FF 
2121   25B6 FF FF FF FF 
2121   25BA FF FF FF FF 
2121   25BE FF FF FF FF 
2121   25C2 FF FF FF FF 
2121   25C6 FF FF FF FF 
2121   25CA FF FF FF FF 
2121   25CE FF FF FF FF 
2121   25D2 FF FF FF FF 
2121   25D6 FF FF FF FF 
2121   25DA FF FF FF FF 
2121   25DE FF FF FF FF 
2121   25E2 FF FF FF FF 
2121   25E6 FF FF FF FF 
2121   25EA FF FF FF FF 
2121   25EE FF FF FF FF 
2121   25F2 FF FF FF FF 
2121   25F6 FF FF FF FF 
2121   25FA FF FF FF FF 
2121   25FE FF FF FF FF 
2121   2602 FF FF FF FF 
2121   2606 FF FF FF FF 
2121   260A FF FF FF FF 
2121   260E FF FF FF FF 
2121   2612 FF FF FF FF 
2121   2616 FF FF FF FF 
2121   261A FF FF FF FF 
2121   261E FF FF FF FF 
2121   2622 FF FF FF FF 
2121   2626 FF FF FF FF 
2121   262A FF FF FF FF 
2121   262E FF FF FF FF 
2121   2632 FF FF FF FF 
2121   2636 FF FF FF FF 
2121   263A FF FF FF FF 
2121   263E FF FF FF FF 
2121   2642 FF FF FF FF 
2121   2646 FF FF FF FF 
2121   264A FF FF FF FF 
2121   264E FF FF FF FF 
2121   2652 FF FF FF FF 
2121   2656 FF FF FF FF 
2121   265A FF FF FF FF 
2121   265E FF FF FF FF 
2121   2662 FF FF FF FF 
2121   2666 FF FF FF FF 
2121   266A FF FF FF FF 
2121   266E FF FF FF FF 
2121   2672 FF FF FF FF 
2121   2676 FF FF FF FF 
2121   267A FF FF FF FF 
2121   267E FF FF FF FF 
2121   2682 FF FF FF FF 
2121   2686 FF FF FF FF 
2121   268A FF FF FF FF 
2121   268E FF FF FF FF 
2121   2692 FF FF FF FF 
2121   2696 FF FF FF FF 
2121   269A FF FF FF FF 
2121   269E FF FF FF FF 
2121   26A2 FF FF FF FF 
2121   26A6 FF FF FF FF 
2121   26AA FF FF FF FF 
2121   26AE FF FF FF FF 
2121   26B2 FF FF FF FF 
2121   26B6 FF FF FF FF 
2121   26BA FF FF FF FF 
2121   26BE FF FF FF FF 
2121   26C2 FF FF FF FF 
2121   26C6 FF FF FF FF 
2121   26CA FF FF FF FF 
2121   26CE FF FF FF FF 
2121   26D2 FF FF FF FF 
2121   26D6 FF FF FF FF 
2121   26DA FF FF FF FF 
2121   26DE FF FF FF FF 
2121   26E2 FF FF FF FF 
2121   26E6 FF FF FF FF 
2121   26EA FF FF FF FF 
2121   26EE FF FF FF FF 
2121   26F2 FF FF FF FF 
2121   26F6 FF FF FF FF 
2121   26FA FF FF FF FF 
2121   26FE FF FF FF FF 
2121   2702 FF FF FF FF 
2121   2706 FF FF FF FF 
2121   270A FF FF FF FF 
2121   270E FF FF FF FF 
2121   2712 FF FF FF FF 
2121   2716 FF FF FF FF 
2121   271A FF FF FF FF 
2121   271E FF FF FF FF 
2121   2722 FF FF FF FF 
2121   2726 FF FF FF FF 
2121   272A FF FF FF FF 
2121   272E FF FF FF FF 
2121   2732 FF FF FF FF 
2121   2736 FF FF FF FF 
2121   273A FF FF FF FF 
2121   273E FF FF FF FF 
2121   2742 FF FF FF FF 
2121   2746 FF FF FF FF 
2121   274A FF FF FF FF 
2121   274E FF FF FF FF 
2121   2752 FF FF FF FF 
2121   2756 FF FF FF FF 
2121   275A FF FF FF FF 
2121   275E FF FF FF FF 
2121   2762 FF FF FF FF 
2121   2766 FF FF FF FF 
2121   276A FF FF FF FF 
2121   276E FF FF FF FF 
2121   2772 FF FF FF FF 
2121   2776 FF FF FF FF 
2121   277A FF FF FF FF 
2121   277E FF FF FF FF 
2121   2782 FF FF FF FF 
2121   2786 FF FF FF FF 
2121   278A FF FF FF FF 
2121   278E FF FF FF FF 
2121   2792 FF FF FF FF 
2121   2796 FF FF FF FF 
2121   279A FF FF FF FF 
2121   279E FF FF FF FF 
2121   27A2 FF FF FF FF 
2121   27A6 FF FF FF FF 
2121   27AA FF FF FF FF 
2121   27AE FF FF FF FF 
2121   27B2 FF FF FF FF 
2121   27B6 FF FF FF FF 
2121   27BA FF FF FF FF 
2121   27BE FF FF FF FF 
2121   27C2 FF FF FF FF 
2121   27C6 FF FF FF FF 
2121   27CA FF FF FF FF 
2121   27CE FF FF FF FF 
2121   27D2 FF FF FF FF 
2121   27D6 FF FF FF FF 
2121   27DA FF FF FF FF 
2121   27DE FF FF FF FF 
2121   27E2 FF FF FF FF 
2121   27E6 FF FF FF FF 
2121   27EA FF FF FF FF 
2121   27EE FF FF FF FF 
2121   27F2 FF FF FF FF 
2121   27F6 FF FF FF FF 
2121   27FA FF FF FF FF 
2121   27FE FF FF FF FF 
2121   2802 FF FF FF FF 
2121   2806 FF FF FF FF 
2121   280A FF FF FF FF 
2121   280E FF FF FF FF 
2121   2812 FF FF FF FF 
2121   2816 FF FF FF FF 
2121   281A FF FF FF FF 
2121   281E FF FF FF FF 
2121   2822 FF FF FF FF 
2121   2826 FF FF FF FF 
2121   282A FF FF FF FF 
2121   282E FF FF FF FF 
2121   2832 FF FF FF FF 
2121   2836 FF FF FF FF 
2121   283A FF FF FF FF 
2121   283E FF FF FF FF 
2121   2842 FF FF FF FF 
2121   2846 FF FF FF FF 
2121   284A FF FF FF FF 
2121   284E FF FF FF FF 
2121   2852 FF FF FF FF 
2121   2856 FF FF FF FF 
2121   285A FF FF FF FF 
2121   285E FF FF FF FF 
2121   2862 FF FF FF FF 
2121   2866 FF FF FF FF 
2121   286A FF FF FF FF 
2121   286E FF FF FF FF 
2121   2872 FF FF FF FF 
2121   2876 FF FF FF FF 
2121   287A FF FF FF FF 
2121   287E FF FF FF FF 
2121   2882 FF FF FF FF 
2121   2886 FF FF FF FF 
2121   288A FF FF FF FF 
2121   288E FF FF FF FF 
2121   2892 FF FF FF FF 
2121   2896 FF FF FF FF 
2121   289A FF FF FF FF 
2121   289E FF FF FF FF 
2121   28A2 FF FF FF FF 
2121   28A6 FF FF FF FF 
2121   28AA FF FF FF FF 
2121   28AE FF FF FF FF 
2121   28B2 FF FF FF FF 
2121   28B6 FF FF FF FF 
2121   28BA FF FF FF FF 
2121   28BE FF FF FF FF 
2121   28C2 FF FF FF FF 
2121   28C6 FF FF FF FF 
2121   28CA FF FF FF FF 
2121   28CE FF FF FF FF 
2121   28D2 FF FF FF FF 
2121   28D6 FF FF FF FF 
2121   28DA FF FF FF FF 
2121   28DE FF FF FF FF 
2121   28E2 FF FF FF FF 
2121   28E6 FF FF FF FF 
2121   28EA FF FF FF FF 
2121   28EE FF FF FF FF 
2121   28F2 FF FF FF FF 
2121   28F6 FF FF FF FF 
2121   28FA FF FF FF FF 
2121   28FE FF FF FF FF 
2121   2902 FF FF FF FF 
2121   2906 FF FF FF FF 
2121   290A FF FF FF FF 
2121   290E FF FF FF FF 
2121   2912 FF FF FF FF 
2121   2916 FF FF FF FF 
2121   291A FF FF FF FF 
2121   291E FF FF FF FF 
2121   2922 FF FF FF FF 
2121   2926 FF FF FF FF 
2121   292A FF FF FF FF 
2121   292E FF FF FF FF 
2121   2932 FF FF FF FF 
2121   2936 FF FF FF FF 
2121   293A FF FF FF FF 
2121   293E FF FF FF FF 
2121   2942 FF FF FF FF 
2121   2946 FF FF FF FF 
2121   294A FF FF FF FF 
2121   294E FF FF FF FF 
2121   2952 FF FF FF FF 
2121   2956 FF FF FF FF 
2121   295A FF FF FF FF 
2121   295E FF FF FF FF 
2121   2962 FF FF FF FF 
2121   2966 FF FF FF FF 
2121   296A FF FF FF FF 
2121   296E FF FF FF FF 
2121   2972 FF FF FF FF 
2121   2976 FF FF FF FF 
2121   297A FF FF FF FF 
2121   297E FF FF FF FF 
2121   2982 FF FF FF FF 
2121   2986 FF FF FF FF 
2121   298A FF FF FF FF 
2121   298E FF FF FF FF 
2121   2992 FF FF FF FF 
2121   2996 FF FF FF FF 
2121   299A FF FF FF FF 
2121   299E FF FF FF FF 
2121   29A2 FF FF FF FF 
2121   29A6 FF FF FF FF 
2121   29AA FF FF FF FF 
2121   29AE FF FF FF FF 
2121   29B2 FF FF FF FF 
2121   29B6 FF FF FF FF 
2121   29BA FF FF FF FF 
2121   29BE FF FF FF FF 
2121   29C2 FF FF FF FF 
2121   29C6 FF FF FF FF 
2121   29CA FF FF FF FF 
2121   29CE FF FF FF FF 
2121   29D2 FF FF FF FF 
2121   29D6 FF FF FF FF 
2121   29DA FF FF FF FF 
2121   29DE FF FF FF FF 
2121   29E2 FF FF FF FF 
2121   29E6 FF FF FF FF 
2121   29EA FF FF FF FF 
2121   29EE FF FF FF FF 
2121   29F2 FF FF FF FF 
2121   29F6 FF FF FF FF 
2121   29FA FF FF FF FF 
2121   29FE FF FF FF FF 
2121   2A02 FF FF FF FF 
2121   2A06 FF FF FF FF 
2121   2A0A FF FF FF FF 
2121   2A0E FF FF FF FF 
2121   2A12 FF FF FF FF 
2121   2A16 FF FF FF FF 
2121   2A1A FF FF FF FF 
2121   2A1E FF FF FF FF 
2121   2A22 FF FF FF FF 
2121   2A26 FF FF FF FF 
2121   2A2A FF FF FF FF 
2121   2A2E FF FF FF FF 
2121   2A32 FF FF FF FF 
2121   2A36 FF FF FF FF 
2121   2A3A FF FF FF FF 
2121   2A3E FF FF FF FF 
2121   2A42 FF FF FF FF 
2121   2A46 FF FF FF FF 
2121   2A4A FF FF FF FF 
2121   2A4E FF FF FF FF 
2121   2A52 FF FF FF FF 
2121   2A56 FF FF FF FF 
2121   2A5A FF FF FF FF 
2121   2A5E FF FF FF FF 
2121   2A62 FF FF FF FF 
2121   2A66 FF FF FF FF 
2121   2A6A FF FF FF FF 
2121   2A6E FF FF FF FF 
2121   2A72 FF FF FF FF 
2121   2A76 FF FF FF FF 
2121   2A7A FF FF FF FF 
2121   2A7E FF FF FF FF 
2121   2A82 FF FF FF FF 
2121   2A86 FF FF FF FF 
2121   2A8A FF FF FF FF 
2121   2A8E FF FF FF FF 
2121   2A92 FF FF FF FF 
2121   2A96 FF FF FF FF 
2121   2A9A FF FF FF FF 
2121   2A9E FF FF FF FF 
2121   2AA2 FF FF FF FF 
2121   2AA6 FF FF FF FF 
2121   2AAA FF FF FF FF 
2121   2AAE FF FF FF FF 
2121   2AB2 FF FF FF FF 
2121   2AB6 FF FF FF FF 
2121   2ABA FF FF FF FF 
2121   2ABE FF FF FF FF 
2121   2AC2 FF FF FF FF 
2121   2AC6 FF FF FF FF 
2121   2ACA FF FF FF FF 
2121   2ACE FF FF FF FF 
2121   2AD2 FF FF FF FF 
2121   2AD6 FF FF FF FF 
2121   2ADA FF FF FF FF 
2121   2ADE FF FF FF FF 
2121   2AE2 FF FF FF FF 
2121   2AE6 FF FF FF FF 
2121   2AEA FF FF FF FF 
2121   2AEE FF FF FF FF 
2121   2AF2 FF FF FF FF 
2121   2AF6 FF FF FF FF 
2121   2AFA FF FF FF FF 
2121   2AFE FF FF FF FF 
2121   2B02 FF FF FF FF 
2121   2B06 FF FF FF FF 
2121   2B0A FF FF FF FF 
2121   2B0E FF FF FF FF 
2121   2B12 FF FF FF FF 
2121   2B16 FF FF FF FF 
2121   2B1A FF FF FF FF 
2121   2B1E FF FF FF FF 
2121   2B22 FF FF FF FF 
2121   2B26 FF FF FF FF 
2121   2B2A FF FF FF FF 
2121   2B2E FF FF FF FF 
2121   2B32 FF FF FF FF 
2121   2B36 FF FF FF FF 
2121   2B3A FF FF FF FF 
2121   2B3E FF FF FF FF 
2121   2B42 FF FF FF FF 
2121   2B46 FF FF FF FF 
2121   2B4A FF FF FF FF 
2121   2B4E FF FF FF FF 
2121   2B52 FF FF FF FF 
2121   2B56 FF FF FF FF 
2121   2B5A FF FF FF FF 
2121   2B5E FF FF FF FF 
2121   2B62 FF FF FF FF 
2121   2B66 FF FF FF FF 
2121   2B6A FF FF FF FF 
2121   2B6E FF FF FF FF 
2121   2B72 FF FF FF FF 
2121   2B76 FF FF FF FF 
2121   2B7A FF FF FF FF 
2121   2B7E FF FF FF FF 
2121   2B82 FF FF FF FF 
2121   2B86 FF FF FF FF 
2121   2B8A FF FF FF FF 
2121   2B8E FF FF FF FF 
2121   2B92 FF FF FF FF 
2121   2B96 FF FF FF FF 
2121   2B9A FF FF FF FF 
2121   2B9E FF FF FF FF 
2121   2BA2 FF FF FF FF 
2121   2BA6 FF FF FF FF 
2121   2BAA FF FF FF FF 
2121   2BAE FF FF FF FF 
2121   2BB2 FF FF FF FF 
2121   2BB6 FF FF FF FF 
2121   2BBA FF FF FF FF 
2121   2BBE FF FF FF FF 
2121   2BC2 FF FF FF FF 
2121   2BC6 FF FF FF FF 
2121   2BCA FF FF FF FF 
2121   2BCE FF FF FF FF 
2121   2BD2 FF FF FF FF 
2121   2BD6 FF FF FF FF 
2121   2BDA FF FF FF FF 
2121   2BDE FF FF FF FF 
2121   2BE2 FF FF FF FF 
2121   2BE6 FF FF FF FF 
2121   2BEA FF FF FF FF 
2121   2BEE FF FF FF FF 
2121   2BF2 FF FF FF FF 
2121   2BF6 FF FF FF FF 
2121   2BFA FF FF FF FF 
2121   2BFE FF FF FF FF 
2121   2C02 FF FF FF FF 
2121   2C06 FF FF FF FF 
2121   2C0A FF FF FF FF 
2121   2C0E FF FF FF FF 
2121   2C12 FF FF FF FF 
2121   2C16 FF FF FF FF 
2121   2C1A FF FF FF FF 
2121   2C1E FF FF FF FF 
2121   2C22 FF FF FF FF 
2121   2C26 FF FF FF FF 
2121   2C2A FF FF FF FF 
2121   2C2E FF FF FF FF 
2121   2C32 FF FF FF FF 
2121   2C36 FF FF FF FF 
2121   2C3A FF FF FF FF 
2121   2C3E FF FF FF FF 
2121   2C42 FF FF FF FF 
2121   2C46 FF FF FF FF 
2121   2C4A FF FF FF FF 
2121   2C4E FF FF FF FF 
2121   2C52 FF FF FF FF 
2121   2C56 FF FF FF FF 
2121   2C5A FF FF FF FF 
2121   2C5E FF FF FF FF 
2121   2C62 FF FF FF FF 
2121   2C66 FF FF FF FF 
2121   2C6A FF FF FF FF 
2121   2C6E FF FF FF FF 
2121   2C72 FF FF FF FF 
2121   2C76 FF FF FF FF 
2121   2C7A FF FF FF FF 
2121   2C7E FF FF FF FF 
2121   2C82 FF FF FF FF 
2121   2C86 FF FF FF FF 
2121   2C8A FF FF FF FF 
2121   2C8E FF FF FF FF 
2121   2C92 FF FF FF FF 
2121   2C96 FF FF FF FF 
2121   2C9A FF FF FF FF 
2121   2C9E FF FF FF FF 
2121   2CA2 FF FF FF FF 
2121   2CA6 FF FF FF FF 
2121   2CAA FF FF FF FF 
2121   2CAE FF FF FF FF 
2121   2CB2 FF FF FF FF 
2121   2CB6 FF FF FF FF 
2121   2CBA FF FF FF FF 
2121   2CBE FF FF FF FF 
2121   2CC2 FF FF FF FF 
2121   2CC6 FF FF FF FF 
2121   2CCA FF FF FF FF 
2121   2CCE FF FF FF FF 
2121   2CD2 FF FF FF FF 
2121   2CD6 FF FF FF FF 
2121   2CDA FF FF FF FF 
2121   2CDE FF FF FF FF 
2121   2CE2 FF FF FF FF 
2121   2CE6 FF FF FF FF 
2121   2CEA FF FF FF FF 
2121   2CEE FF FF FF FF 
2121   2CF2 FF FF FF FF 
2121   2CF6 FF FF FF FF 
2121   2CFA FF FF FF FF 
2121   2CFE FF FF FF FF 
2121   2D02 FF FF FF FF 
2121   2D06 FF FF FF FF 
2121   2D0A FF FF FF FF 
2121   2D0E FF FF FF FF 
2121   2D12 FF FF FF FF 
2121   2D16 FF FF FF FF 
2121   2D1A FF FF FF FF 
2121   2D1E FF FF FF FF 
2121   2D22 FF FF FF FF 
2121   2D26 FF FF FF FF 
2121   2D2A FF FF FF FF 
2121   2D2E FF FF FF FF 
2121   2D32 FF FF FF FF 
2121   2D36 FF FF FF FF 
2121   2D3A FF FF FF FF 
2121   2D3E FF FF FF FF 
2121   2D42 FF FF FF FF 
2121   2D46 FF FF FF FF 
2121   2D4A FF FF FF FF 
2121   2D4E FF FF FF FF 
2121   2D52 FF FF FF FF 
2121   2D56 FF FF FF FF 
2121   2D5A FF FF FF FF 
2121   2D5E FF FF FF FF 
2121   2D62 FF FF FF FF 
2121   2D66 FF FF FF FF 
2121   2D6A FF FF FF FF 
2121   2D6E FF FF FF FF 
2121   2D72 FF FF FF FF 
2121   2D76 FF FF FF FF 
2121   2D7A FF FF FF FF 
2121   2D7E FF FF FF FF 
2121   2D82 FF FF FF FF 
2121   2D86 FF FF FF FF 
2121   2D8A FF FF FF FF 
2121   2D8E FF FF FF FF 
2121   2D92 FF FF FF FF 
2121   2D96 FF FF FF FF 
2121   2D9A FF FF FF FF 
2121   2D9E FF FF FF FF 
2121   2DA2 FF FF FF FF 
2121   2DA6 FF FF FF FF 
2121   2DAA FF FF FF FF 
2121   2DAE FF FF FF FF 
2121   2DB2 FF FF FF FF 
2121   2DB6 FF FF FF FF 
2121   2DBA FF FF FF FF 
2121   2DBE FF FF FF FF 
2121   2DC2 FF FF FF FF 
2121   2DC6 FF FF FF FF 
2121   2DCA FF FF FF FF 
2121   2DCE FF FF FF FF 
2121   2DD2 FF FF FF FF 
2121   2DD6 FF FF FF FF 
2121   2DDA FF FF FF FF 
2121   2DDE FF FF FF FF 
2121   2DE2 FF FF FF FF 
2121   2DE6 FF FF FF FF 
2121   2DEA FF FF FF FF 
2121   2DEE FF FF FF FF 
2121   2DF2 FF FF FF FF 
2121   2DF6 FF FF FF FF 
2121   2DFA FF FF FF FF 
2121   2DFE FF FF FF FF 
2121   2E02 FF FF FF FF 
2121   2E06 FF FF FF FF 
2121   2E0A FF FF FF FF 
2121   2E0E FF FF FF FF 
2121   2E12 FF FF FF FF 
2121   2E16 FF FF FF FF 
2121   2E1A FF FF FF FF 
2121   2E1E FF FF FF FF 
2121   2E22 FF FF FF FF 
2121   2E26 FF FF FF FF 
2121   2E2A FF FF FF FF 
2121   2E2E FF FF FF FF 
2121   2E32 FF FF FF FF 
2121   2E36 FF FF FF FF 
2121   2E3A FF FF FF FF 
2121   2E3E FF FF FF FF 
2121   2E42 FF FF FF FF 
2121   2E46 FF FF FF FF 
2121   2E4A FF FF FF FF 
2121   2E4E FF FF FF FF 
2121   2E52 FF FF FF FF 
2121   2E56 FF FF FF FF 
2121   2E5A FF FF FF FF 
2121   2E5E FF FF FF FF 
2121   2E62 FF FF FF FF 
2121   2E66 FF FF FF FF 
2121   2E6A FF FF FF FF 
2121   2E6E FF FF FF FF 
2121   2E72 FF FF FF FF 
2121   2E76 FF FF FF FF 
2121   2E7A FF FF FF FF 
2121   2E7E FF FF FF FF 
2121   2E82 FF FF FF FF 
2121   2E86 FF FF FF FF 
2121   2E8A FF FF FF FF 
2121   2E8E FF FF FF FF 
2121   2E92 FF FF FF FF 
2121   2E96 FF FF FF FF 
2121   2E9A FF FF FF FF 
2121   2E9E FF FF FF FF 
2121   2EA2 FF FF FF FF 
2121   2EA6 FF FF FF FF 
2121   2EAA FF FF FF FF 
2121   2EAE FF FF FF FF 
2121   2EB2 FF FF FF FF 
2121   2EB6 FF FF FF FF 
2121   2EBA FF FF FF FF 
2121   2EBE FF FF FF FF 
2121   2EC2 FF FF FF FF 
2121   2EC6 FF FF FF FF 
2121   2ECA FF FF FF FF 
2121   2ECE FF FF FF FF 
2121   2ED2 FF FF FF FF 
2121   2ED6 FF FF FF FF 
2121   2EDA FF FF FF FF 
2121   2EDE FF FF FF FF 
2121   2EE2 FF FF FF FF 
2121   2EE6 FF FF FF FF 
2121   2EEA FF FF FF FF 
2121   2EEE FF FF FF FF 
2121   2EF2 FF FF FF FF 
2121   2EF6 FF FF FF FF 
2121   2EFA FF FF FF FF 
2121   2EFE FF FF FF FF 
2121   2F02 FF FF FF FF 
2121   2F06 FF FF FF FF 
2121   2F0A FF FF FF FF 
2121   2F0E FF FF FF FF 
2121   2F12 FF FF FF FF 
2121   2F16 FF FF FF FF 
2121   2F1A FF FF FF FF 
2121   2F1E FF FF FF FF 
2121   2F22 FF FF FF FF 
2121   2F26 FF FF FF FF 
2121   2F2A FF FF FF FF 
2121   2F2E FF FF FF FF 
2121   2F32 FF FF FF FF 
2121   2F36 FF FF FF FF 
2121   2F3A FF FF FF FF 
2121   2F3E FF FF FF FF 
2121   2F42 FF FF FF FF 
2121   2F46 FF FF FF FF 
2121   2F4A FF FF FF FF 
2121   2F4E FF FF FF FF 
2121   2F52 FF FF FF FF 
2121   2F56 FF FF FF FF 
2121   2F5A FF FF FF FF 
2121   2F5E FF FF FF FF 
2121   2F62 FF FF FF FF 
2121   2F66 FF FF FF FF 
2121   2F6A FF FF FF FF 
2121   2F6E FF FF FF FF 
2121   2F72 FF FF FF FF 
2121   2F76 FF FF FF FF 
2121   2F7A FF FF FF FF 
2121   2F7E FF FF FF FF 
2121   2F82 FF FF FF FF 
2121   2F86 FF FF FF FF 
2121   2F8A FF FF FF FF 
2121   2F8E FF FF FF FF 
2121   2F92 FF FF FF FF 
2121   2F96 FF FF FF FF 
2121   2F9A FF FF FF FF 
2121   2F9E FF FF FF FF 
2121   2FA2 FF FF FF FF 
2121   2FA6 FF FF FF FF 
2121   2FAA FF FF FF FF 
2121   2FAE FF FF FF FF 
2121   2FB2 FF FF FF FF 
2121   2FB6 FF FF FF FF 
2121   2FBA FF FF FF FF 
2121   2FBE FF FF FF FF 
2121   2FC2 FF FF FF FF 
2121   2FC6 FF FF FF FF 
2121   2FCA FF FF FF FF 
2121   2FCE FF FF FF FF 
2121   2FD2 FF FF FF FF 
2121   2FD6 FF FF FF FF 
2121   2FDA FF FF FF FF 
2121   2FDE FF FF FF FF 
2121   2FE2 FF FF FF FF 
2121   2FE6 FF FF FF FF 
2121   2FEA FF FF FF FF 
2121   2FEE FF FF FF FF 
2121   2FF2 FF FF FF FF 
2121   2FF6 FF FF FF FF 
2121   2FFA FF FF FF FF 
2121   2FFE FF FF FF FF 
2121   3002 FF FF FF FF 
2121   3006 FF FF FF FF 
2121   300A FF FF FF FF 
2121   300E FF FF FF FF 
2121   3012 FF FF FF FF 
2121   3016 FF FF FF FF 
2121   301A FF FF FF FF 
2121   301E FF FF FF FF 
2121   3022 FF FF FF FF 
2121   3026 FF FF FF FF 
2121   302A FF FF FF FF 
2121   302E FF FF FF FF 
2121   3032 FF FF FF FF 
2121   3036 FF FF FF FF 
2121   303A FF FF FF FF 
2121   303E FF FF FF FF 
2121   3042 FF FF FF FF 
2121   3046 FF FF FF FF 
2121   304A FF FF FF FF 
2121   304E FF FF FF FF 
2121   3052 FF FF FF FF 
2121   3056 FF FF FF FF 
2121   305A FF FF FF FF 
2121   305E FF FF FF FF 
2121   3062 FF FF FF FF 
2121   3066 FF FF FF FF 
2121   306A FF FF FF FF 
2121   306E FF FF FF FF 
2121   3072 FF FF FF FF 
2121   3076 FF FF FF FF 
2121   307A FF FF FF FF 
2121   307E FF FF FF FF 
2121   3082 FF FF FF FF 
2121   3086 FF FF FF FF 
2121   308A FF FF FF FF 
2121   308E FF FF FF FF 
2121   3092 FF FF FF FF 
2121   3096 FF FF FF FF 
2121   309A FF FF FF FF 
2121   309E FF FF FF FF 
2121   30A2 FF FF FF FF 
2121   30A6 FF FF FF FF 
2121   30AA FF FF FF FF 
2121   30AE FF FF FF FF 
2121   30B2 FF FF FF FF 
2121   30B6 FF FF FF FF 
2121   30BA FF FF FF FF 
2121   30BE FF FF FF FF 
2121   30C2 FF FF FF FF 
2121   30C6 FF FF FF FF 
2121   30CA FF FF FF FF 
2121   30CE FF FF FF FF 
2121   30D2 FF FF FF FF 
2121   30D6 FF FF FF FF 
2121   30DA FF FF FF FF 
2121   30DE FF FF FF FF 
2121   30E2 FF FF FF FF 
2121   30E6 FF FF FF FF 
2121   30EA FF FF FF FF 
2121   30EE FF FF FF FF 
2121   30F2 FF FF FF FF 
2121   30F6 FF FF FF FF 
2121   30FA FF FF FF FF 
2121   30FE FF FF FF FF 
2121   3102 FF FF FF FF 
2121   3106 FF FF FF FF 
2121   310A FF FF FF FF 
2121   310E FF FF FF FF 
2121   3112 FF FF FF FF 
2121   3116 FF FF FF FF 
2121   311A FF FF FF FF 
2121   311E FF FF FF FF 
2121   3122 FF FF FF FF 
2121   3126 FF FF FF FF 
2121   312A FF FF FF FF 
2121   312E FF FF FF FF 
2121   3132 FF FF FF FF 
2121   3136 FF FF FF FF 
2121   313A FF FF FF FF 
2121   313E FF FF FF FF 
2121   3142 FF FF FF FF 
2121   3146 FF FF FF FF 
2121   314A FF FF FF FF 
2121   314E FF FF FF FF 
2121   3152 FF FF FF FF 
2121   3156 FF FF FF FF 
2121   315A FF FF FF FF 
2121   315E FF FF FF FF 
2121   3162 FF FF FF FF 
2121   3166 FF FF FF FF 
2121   316A FF FF FF FF 
2121   316E FF FF FF FF 
2121   3172 FF FF FF FF 
2121   3176 FF FF FF FF 
2121   317A FF FF FF FF 
2121   317E FF FF FF FF 
2121   3182 FF FF FF FF 
2121   3186 FF FF FF FF 
2121   318A FF FF FF FF 
2121   318E FF FF FF FF 
2121   3192 FF FF FF FF 
2121   3196 FF FF FF FF 
2121   319A FF FF FF FF 
2121   319E FF FF FF FF 
2121   31A2 FF FF FF FF 
2121   31A6 FF FF FF FF 
2121   31AA FF FF FF FF 
2121   31AE FF FF FF FF 
2121   31B2 FF FF FF FF 
2121   31B6 FF FF FF FF 
2121   31BA FF FF FF FF 
2121   31BE FF FF FF FF 
2121   31C2 FF FF FF FF 
2121   31C6 FF FF FF FF 
2121   31CA FF FF FF FF 
2121   31CE FF FF FF FF 
2121   31D2 FF FF FF FF 
2121   31D6 FF FF FF FF 
2121   31DA FF FF FF FF 
2121   31DE FF FF FF FF 
2121   31E2 FF FF FF FF 
2121   31E6 FF FF FF FF 
2121   31EA FF FF FF FF 
2121   31EE FF FF FF FF 
2121   31F2 FF FF FF FF 
2121   31F6 FF FF FF FF 
2121   31FA FF FF FF FF 
2121   31FE FF FF FF FF 
2121   3202 FF FF FF FF 
2121   3206 FF FF FF FF 
2121   320A FF FF FF FF 
2121   320E FF FF FF FF 
2121   3212 FF FF FF FF 
2121   3216 FF FF FF FF 
2121   321A FF FF FF FF 
2121   321E FF FF FF FF 
2121   3222 FF FF FF FF 
2121   3226 FF FF FF FF 
2121   322A FF FF FF FF 
2121   322E FF FF FF FF 
2121   3232 FF FF FF FF 
2121   3236 FF FF FF FF 
2121   323A FF FF FF FF 
2121   323E FF FF FF FF 
2121   3242 FF FF FF FF 
2121   3246 FF FF FF FF 
2121   324A FF FF FF FF 
2121   324E FF FF FF FF 
2121   3252 FF FF FF FF 
2121   3256 FF FF FF FF 
2121   325A FF FF FF FF 
2121   325E FF FF FF FF 
2121   3262 FF FF FF FF 
2121   3266 FF FF FF FF 
2121   326A FF FF FF FF 
2121   326E FF FF FF FF 
2121   3272 FF FF FF FF 
2121   3276 FF FF FF FF 
2121   327A FF FF FF FF 
2121   327E FF FF FF FF 
2121   3282 FF FF FF FF 
2121   3286 FF FF FF FF 
2121   328A FF FF FF FF 
2121   328E FF FF FF FF 
2121   3292 FF FF FF FF 
2121   3296 FF FF FF FF 
2121   329A FF FF FF FF 
2121   329E FF FF FF FF 
2121   32A2 FF FF FF FF 
2121   32A6 FF FF FF FF 
2121   32AA FF FF FF FF 
2121   32AE FF FF FF FF 
2121   32B2 FF FF FF FF 
2121   32B6 FF FF FF FF 
2121   32BA FF FF FF FF 
2121   32BE FF FF FF FF 
2121   32C2 FF FF FF FF 
2121   32C6 FF FF FF FF 
2121   32CA FF FF FF FF 
2121   32CE FF FF FF FF 
2121   32D2 FF FF FF FF 
2121   32D6 FF FF FF FF 
2121   32DA FF FF FF FF 
2121   32DE FF FF FF FF 
2121   32E2 FF FF FF FF 
2121   32E6 FF FF FF FF 
2121   32EA FF FF FF FF 
2121   32EE FF FF FF FF 
2121   32F2 FF FF FF FF 
2121   32F6 FF FF FF FF 
2121   32FA FF FF FF FF 
2121   32FE FF FF FF FF 
2121   3302 FF FF FF FF 
2121   3306 FF FF FF FF 
2121   330A FF FF FF FF 
2121   330E FF FF FF FF 
2121   3312 FF FF FF FF 
2121   3316 FF FF FF FF 
2121   331A FF FF FF FF 
2121   331E FF FF FF FF 
2121   3322 FF FF FF FF 
2121   3326 FF FF FF FF 
2121   332A FF FF FF FF 
2121   332E FF FF FF FF 
2121   3332 FF FF FF FF 
2121   3336 FF FF FF FF 
2121   333A FF FF FF FF 
2121   333E FF FF FF FF 
2121   3342 FF FF FF FF 
2121   3346 FF FF FF FF 
2121   334A FF FF FF FF 
2121   334E FF FF FF FF 
2121   3352 FF FF FF FF 
2121   3356 FF FF FF FF 
2121   335A FF FF FF FF 
2121   335E FF FF FF FF 
2121   3362 FF FF FF FF 
2121   3366 FF FF FF FF 
2121   336A FF FF FF FF 
2121   336E FF FF FF FF 
2121   3372 FF FF FF FF 
2121   3376 FF FF FF FF 
2121   337A FF FF FF FF 
2121   337E FF FF FF FF 
2121   3382 FF FF FF FF 
2121   3386 FF FF FF FF 
2121   338A FF FF FF FF 
2121   338E FF FF FF FF 
2121   3392 FF FF FF FF 
2121   3396 FF FF FF FF 
2121   339A FF FF FF FF 
2121   339E FF FF FF FF 
2121   33A2 FF FF FF FF 
2121   33A6 FF FF FF FF 
2121   33AA FF FF FF FF 
2121   33AE FF FF FF FF 
2121   33B2 FF FF FF FF 
2121   33B6 FF FF FF FF 
2121   33BA FF FF FF FF 
2121   33BE FF FF FF FF 
2121   33C2 FF FF FF FF 
2121   33C6 FF FF FF FF 
2121   33CA FF FF FF FF 
2121   33CE FF FF FF FF 
2121   33D2 FF FF FF FF 
2121   33D6 FF FF FF FF 
2121   33DA FF FF FF FF 
2121   33DE FF FF FF FF 
2121   33E2 FF FF FF FF 
2121   33E6 FF FF FF FF 
2121   33EA FF FF FF FF 
2121   33EE FF FF FF FF 
2121   33F2 FF FF FF FF 
2121   33F6 FF FF FF FF 
2121   33FA FF FF FF FF 
2121   33FE FF FF FF FF 
2121   3402 FF FF FF FF 
2121   3406 FF FF FF FF 
2121   340A FF FF FF FF 
2121   340E FF FF FF FF 
2121   3412 FF FF FF FF 
2121   3416 FF FF FF FF 
2121   341A FF FF FF FF 
2121   341E FF FF FF FF 
2121   3422 FF FF FF FF 
2121   3426 FF FF FF FF 
2121   342A FF FF FF FF 
2121   342E FF FF FF FF 
2121   3432 FF FF FF FF 
2121   3436 FF FF FF FF 
2121   343A FF FF FF FF 
2121   343E FF FF FF FF 
2121   3442 FF FF FF FF 
2121   3446 FF FF FF FF 
2121   344A FF FF FF FF 
2121   344E FF FF FF FF 
2121   3452 FF FF FF FF 
2121   3456 FF FF FF FF 
2121   345A FF FF FF FF 
2121   345E FF FF FF FF 
2121   3462 FF FF FF FF 
2121   3466 FF FF FF FF 
2121   346A FF FF FF FF 
2121   346E FF FF FF FF 
2121   3472 FF FF FF FF 
2121   3476 FF FF FF FF 
2121   347A FF FF FF FF 
2121   347E FF FF FF FF 
2121   3482 FF FF FF FF 
2121   3486 FF FF FF FF 
2121   348A FF FF FF FF 
2121   348E FF FF FF FF 
2121   3492 FF FF FF FF 
2121   3496 FF FF FF FF 
2121   349A FF FF FF FF 
2121   349E FF FF FF FF 
2121   34A2 FF FF FF FF 
2121   34A6 FF FF FF FF 
2121   34AA FF FF FF FF 
2121   34AE FF FF FF FF 
2121   34B2 FF FF FF FF 
2121   34B6 FF FF FF FF 
2121   34BA FF FF FF FF 
2121   34BE FF FF FF FF 
2121   34C2 FF FF FF FF 
2121   34C6 FF FF FF FF 
2121   34CA FF FF FF FF 
2121   34CE FF FF FF FF 
2121   34D2 FF FF FF FF 
2121   34D6 FF FF FF FF 
2121   34DA FF FF FF FF 
2121   34DE FF FF FF FF 
2121   34E2 FF FF FF FF 
2121   34E6 FF FF FF FF 
2121   34EA FF FF FF FF 
2121   34EE FF FF FF FF 
2121   34F2 FF FF FF FF 
2121   34F6 FF FF FF FF 
2121   34FA FF FF FF FF 
2121   34FE FF FF FF FF 
2121   3502 FF FF FF FF 
2121   3506 FF FF FF FF 
2121   350A FF FF FF FF 
2121   350E FF FF FF FF 
2121   3512 FF FF FF FF 
2121   3516 FF FF FF FF 
2121   351A FF FF FF FF 
2121   351E FF FF FF FF 
2121   3522 FF FF FF FF 
2121   3526 FF FF FF FF 
2121   352A FF FF FF FF 
2121   352E FF FF FF FF 
2121   3532 FF FF FF FF 
2121   3536 FF FF FF FF 
2121   353A FF FF FF FF 
2121   353E FF FF FF FF 
2121   3542 FF FF FF FF 
2121   3546 FF FF FF FF 
2121   354A FF FF FF FF 
2121   354E FF FF FF FF 
2121   3552 FF FF FF FF 
2121   3556 FF FF FF FF 
2121   355A FF FF FF FF 
2121   355E FF FF FF FF 
2121   3562 FF FF FF FF 
2121   3566 FF FF FF FF 
2121   356A FF FF FF FF 
2121   356E FF FF FF FF 
2121   3572 FF FF FF FF 
2121   3576 FF FF FF FF 
2121   357A FF FF FF FF 
2121   357E FF FF FF FF 
2121   3582 FF FF FF FF 
2121   3586 FF FF FF FF 
2121   358A FF FF FF FF 
2121   358E FF FF FF FF 
2121   3592 FF FF FF FF 
2121   3596 FF FF FF FF 
2121   359A FF FF FF FF 
2121   359E FF FF FF FF 
2121   35A2 FF FF FF FF 
2121   35A6 FF FF FF FF 
2121   35AA FF FF FF FF 
2121   35AE FF FF FF FF 
2121   35B2 FF FF FF FF 
2121   35B6 FF FF FF FF 
2121   35BA FF FF FF FF 
2121   35BE FF FF FF FF 
2121   35C2 FF FF FF FF 
2121   35C6 FF FF FF FF 
2121   35CA FF FF FF FF 
2121   35CE FF FF FF FF 
2121   35D2 FF FF FF FF 
2121   35D6 FF FF FF FF 
2121   35DA FF FF FF FF 
2121   35DE FF FF FF FF 
2121   35E2 FF FF FF FF 
2121   35E6 FF FF FF FF 
2121   35EA FF FF FF FF 
2121   35EE FF FF FF FF 
2121   35F2 FF FF FF FF 
2121   35F6 FF FF FF FF 
2121   35FA FF FF FF FF 
2121   35FE FF FF FF FF 
2121   3602 FF FF FF FF 
2121   3606 FF FF FF FF 
2121   360A FF FF FF FF 
2121   360E FF FF FF FF 
2121   3612 FF FF FF FF 
2121   3616 FF FF FF FF 
2121   361A FF FF FF FF 
2121   361E FF FF FF FF 
2121   3622 FF FF FF FF 
2121   3626 FF FF FF FF 
2121   362A FF FF FF FF 
2121   362E FF FF FF FF 
2121   3632 FF FF FF FF 
2121   3636 FF FF FF FF 
2121   363A FF FF FF FF 
2121   363E FF FF FF FF 
2121   3642 FF FF FF FF 
2121   3646 FF FF FF FF 
2121   364A FF FF FF FF 
2121   364E FF FF FF FF 
2121   3652 FF FF FF FF 
2121   3656 FF FF FF FF 
2121   365A FF FF FF FF 
2121   365E FF FF FF FF 
2121   3662 FF FF FF FF 
2121   3666 FF FF FF FF 
2121   366A FF FF FF FF 
2121   366E FF FF FF FF 
2121   3672 FF FF FF FF 
2121   3676 FF FF FF FF 
2121   367A FF FF FF FF 
2121   367E FF FF FF FF 
2121   3682 FF FF FF FF 
2121   3686 FF FF FF FF 
2121   368A FF FF FF FF 
2121   368E FF FF FF FF 
2121   3692 FF FF FF FF 
2121   3696 FF FF FF FF 
2121   369A FF FF FF FF 
2121   369E FF FF FF FF 
2121   36A2 FF FF FF FF 
2121   36A6 FF FF FF FF 
2121   36AA FF FF FF FF 
2121   36AE FF FF FF FF 
2121   36B2 FF FF FF FF 
2121   36B6 FF FF FF FF 
2121   36BA FF FF FF FF 
2121   36BE FF FF FF FF 
2121   36C2 FF FF FF FF 
2121   36C6 FF FF FF FF 
2121   36CA FF FF FF FF 
2121   36CE FF FF FF FF 
2121   36D2 FF FF FF FF 
2121   36D6 FF FF FF FF 
2121   36DA FF FF FF FF 
2121   36DE FF FF FF FF 
2121   36E2 FF FF FF FF 
2121   36E6 FF FF FF FF 
2121   36EA FF FF FF FF 
2121   36EE FF FF FF FF 
2121   36F2 FF FF FF FF 
2121   36F6 FF FF FF FF 
2121   36FA FF FF FF FF 
2121   36FE FF FF FF FF 
2121   3702 FF FF FF FF 
2121   3706 FF FF FF FF 
2121   370A FF FF FF FF 
2121   370E FF FF FF FF 
2121   3712 FF FF FF FF 
2121   3716 FF FF FF FF 
2121   371A FF FF FF FF 
2121   371E FF FF FF FF 
2121   3722 FF FF FF FF 
2121   3726 FF FF FF FF 
2121   372A FF FF FF FF 
2121   372E FF FF FF FF 
2121   3732 FF FF FF FF 
2121   3736 FF FF FF FF 
2121   373A FF FF FF FF 
2121   373E FF FF FF FF 
2121   3742 FF FF FF FF 
2121   3746 FF FF FF FF 
2121   374A FF FF FF FF 
2121   374E FF FF FF FF 
2121   3752 FF FF FF FF 
2121   3756 FF FF FF FF 
2121   375A FF FF FF FF 
2121   375E FF FF FF FF 
2121   3762 FF FF FF FF 
2121   3766 FF FF FF FF 
2121   376A FF FF FF FF 
2121   376E FF FF FF FF 
2121   3772 FF FF FF FF 
2121   3776 FF FF FF FF 
2121   377A FF FF FF FF 
2121   377E FF FF FF FF 
2121   3782 FF FF FF FF 
2121   3786 FF FF FF FF 
2121   378A FF FF FF FF 
2121   378E FF FF FF FF 
2121   3792 FF FF FF FF 
2121   3796 FF FF FF FF 
2121   379A FF FF FF FF 
2121   379E FF FF FF FF 
2121   37A2 FF FF FF FF 
2121   37A6 FF FF FF FF 
2121   37AA FF FF FF FF 
2121   37AE FF FF FF FF 
2121   37B2 FF FF FF FF 
2121   37B6 FF FF FF FF 
2121   37BA FF FF FF FF 
2121   37BE FF FF FF FF 
2121   37C2 FF FF FF FF 
2121   37C6 FF FF FF FF 
2121   37CA FF FF FF FF 
2121   37CE FF FF FF FF 
2121   37D2 FF FF FF FF 
2121   37D6 FF FF FF FF 
2121   37DA FF FF FF FF 
2121   37DE FF FF FF FF 
2121   37E2 FF FF FF FF 
2121   37E6 FF FF FF FF 
2121   37EA FF FF FF FF 
2121   37EE FF FF FF FF 
2121   37F2 FF FF FF FF 
2121   37F6 FF FF FF FF 
2121   37FA FF FF FF FF 
2121   37FE FF FF FF FF 
2121   3802 FF FF FF FF 
2121   3806 FF FF FF FF 
2121   380A FF FF FF FF 
2121   380E FF FF FF FF 
2121   3812 FF FF FF FF 
2121   3816 FF FF FF FF 
2121   381A FF FF FF FF 
2121   381E FF FF FF FF 
2121   3822 FF FF FF FF 
2121   3826 FF FF FF FF 
2121   382A FF FF FF FF 
2121   382E FF FF FF FF 
2121   3832 FF FF FF FF 
2121   3836 FF FF FF FF 
2121   383A FF FF FF FF 
2121   383E FF FF FF FF 
2121   3842 FF FF FF FF 
2121   3846 FF FF FF FF 
2121   384A FF FF FF FF 
2121   384E FF FF FF FF 
2121   3852 FF FF FF FF 
2121   3856 FF FF FF FF 
2121   385A FF FF FF FF 
2121   385E FF FF FF FF 
2121   3862 FF FF FF FF 
2121   3866 FF FF FF FF 
2121   386A FF FF FF FF 
2121   386E FF FF FF FF 
2121   3872 FF FF FF FF 
2121   3876 FF FF FF FF 
2121   387A FF FF FF FF 
2121   387E FF FF FF FF 
2121   3882 FF FF FF FF 
2121   3886 FF FF FF FF 
2121   388A FF FF FF FF 
2121   388E FF FF FF FF 
2121   3892 FF FF FF FF 
2121   3896 FF FF FF FF 
2121   389A FF FF FF FF 
2121   389E FF FF FF FF 
2121   38A2 FF FF FF FF 
2121   38A6 FF FF FF FF 
2121   38AA FF FF FF FF 
2121   38AE FF FF FF FF 
2121   38B2 FF FF FF FF 
2121   38B6 FF FF FF FF 
2121   38BA FF FF FF FF 
2121   38BE FF FF FF FF 
2121   38C2 FF FF FF FF 
2121   38C6 FF FF FF FF 
2121   38CA FF FF FF FF 
2121   38CE FF FF FF FF 
2121   38D2 FF FF FF FF 
2121   38D6 FF FF FF FF 
2121   38DA FF FF FF FF 
2121   38DE FF FF FF FF 
2121   38E2 FF FF FF FF 
2121   38E6 FF FF FF FF 
2121   38EA FF FF FF FF 
2121   38EE FF FF FF FF 
2121   38F2 FF FF FF FF 
2121   38F6 FF FF FF FF 
2121   38FA FF FF FF FF 
2121   38FE FF FF FF FF 
2121   3902 FF FF FF FF 
2121   3906 FF FF FF FF 
2121   390A FF FF FF FF 
2121   390E FF FF FF FF 
2121   3912 FF FF FF FF 
2121   3916 FF FF FF FF 
2121   391A FF FF FF FF 
2121   391E FF FF FF FF 
2121   3922 FF FF FF FF 
2121   3926 FF FF FF FF 
2121   392A FF FF FF FF 
2121   392E FF FF FF FF 
2121   3932 FF FF FF FF 
2121   3936 FF FF FF FF 
2121   393A FF FF FF FF 
2121   393E FF FF FF FF 
2121   3942 FF FF FF FF 
2121   3946 FF FF FF FF 
2121   394A FF FF FF FF 
2121   394E FF FF FF FF 
2121   3952 FF FF FF FF 
2121   3956 FF FF FF FF 
2121   395A FF FF FF FF 
2121   395E FF FF FF FF 
2121   3962 FF FF FF FF 
2121   3966 FF FF FF FF 
2121   396A FF FF FF FF 
2121   396E FF FF FF FF 
2121   3972 FF FF FF FF 
2121   3976 FF FF FF FF 
2121   397A FF FF FF FF 
2121   397E FF FF FF FF 
2121   3982 FF FF FF FF 
2121   3986 FF FF FF FF 
2121   398A FF FF FF FF 
2121   398E FF FF FF FF 
2121   3992 FF FF FF FF 
2121   3996 FF FF FF FF 
2121   399A FF FF FF FF 
2121   399E FF FF FF FF 
2121   39A2 FF FF FF FF 
2121   39A6 FF FF FF FF 
2121   39AA FF FF FF FF 
2121   39AE FF FF FF FF 
2121   39B2 FF FF FF FF 
2121   39B6 FF FF FF FF 
2121   39BA FF FF FF FF 
2121   39BE FF FF FF FF 
2121   39C2 FF FF FF FF 
2121   39C6 FF FF FF FF 
2121   39CA FF FF FF FF 
2121   39CE FF FF FF FF 
2121   39D2 FF FF FF FF 
2121   39D6 FF FF FF FF 
2121   39DA FF FF FF FF 
2121   39DE FF FF FF FF 
2121   39E2 FF FF FF FF 
2121   39E6 FF FF FF FF 
2121   39EA FF FF FF FF 
2121   39EE FF FF FF FF 
2121   39F2 FF FF FF FF 
2121   39F6 FF FF FF FF 
2121   39FA FF FF FF FF 
2121   39FE FF FF FF FF 
2121   3A02 FF FF FF FF 
2121   3A06 FF FF FF FF 
2121   3A0A FF FF FF FF 
2121   3A0E FF FF FF FF 
2121   3A12 FF FF FF FF 
2121   3A16 FF FF FF FF 
2121   3A1A FF FF FF FF 
2121   3A1E FF FF FF FF 
2121   3A22 FF FF FF FF 
2121   3A26 FF FF FF FF 
2121   3A2A FF FF FF FF 
2121   3A2E FF FF FF FF 
2121   3A32 FF FF FF FF 
2121   3A36 FF FF FF FF 
2121   3A3A FF FF FF FF 
2121   3A3E FF FF FF FF 
2121   3A42 FF FF FF FF 
2121   3A46 FF FF FF FF 
2121   3A4A FF FF FF FF 
2121   3A4E FF FF FF FF 
2121   3A52 FF FF FF FF 
2121   3A56 FF FF FF FF 
2121   3A5A FF FF FF FF 
2121   3A5E FF FF FF FF 
2121   3A62 FF FF FF FF 
2121   3A66 FF FF FF FF 
2121   3A6A FF FF FF FF 
2121   3A6E FF FF FF FF 
2121   3A72 FF FF FF FF 
2121   3A76 FF FF FF FF 
2121   3A7A FF FF FF FF 
2121   3A7E FF FF FF FF 
2121   3A82 FF FF FF FF 
2121   3A86 FF FF FF FF 
2121   3A8A FF FF FF FF 
2121   3A8E FF FF FF FF 
2121   3A92 FF FF FF FF 
2121   3A96 FF FF FF FF 
2121   3A9A FF FF FF FF 
2121   3A9E FF FF FF FF 
2121   3AA2 FF FF FF FF 
2121   3AA6 FF FF FF FF 
2121   3AAA FF FF FF FF 
2121   3AAE FF FF FF FF 
2121   3AB2 FF FF FF FF 
2121   3AB6 FF FF FF FF 
2121   3ABA FF FF FF FF 
2121   3ABE FF FF FF FF 
2121   3AC2 FF FF FF FF 
2121   3AC6 FF FF FF FF 
2121   3ACA FF FF FF FF 
2121   3ACE FF FF FF FF 
2121   3AD2 FF FF FF FF 
2121   3AD6 FF FF FF FF 
2121   3ADA FF FF FF FF 
2121   3ADE FF FF FF FF 
2121   3AE2 FF FF FF FF 
2121   3AE6 FF FF FF FF 
2121   3AEA FF FF FF FF 
2121   3AEE FF FF FF FF 
2121   3AF2 FF FF FF FF 
2121   3AF6 FF FF FF FF 
2121   3AFA FF FF FF FF 
2121   3AFE FF FF FF FF 
2121   3B02 FF FF FF FF 
2121   3B06 FF FF FF FF 
2121   3B0A FF FF FF FF 
2121   3B0E FF FF FF FF 
2121   3B12 FF FF FF FF 
2121   3B16 FF FF FF FF 
2121   3B1A FF FF FF FF 
2121   3B1E FF FF FF FF 
2121   3B22 FF FF FF FF 
2121   3B26 FF FF FF FF 
2121   3B2A FF FF FF FF 
2121   3B2E FF FF FF FF 
2121   3B32 FF FF FF FF 
2121   3B36 FF FF FF FF 
2121   3B3A FF FF FF FF 
2121   3B3E FF FF FF FF 
2121   3B42 FF FF FF FF 
2121   3B46 FF FF FF FF 
2121   3B4A FF FF FF FF 
2121   3B4E FF FF FF FF 
2121   3B52 FF FF FF FF 
2121   3B56 FF FF FF FF 
2121   3B5A FF FF FF FF 
2121   3B5E FF FF FF FF 
2121   3B62 FF FF FF FF 
2121   3B66 FF FF FF FF 
2121   3B6A FF FF FF FF 
2121   3B6E FF FF FF FF 
2121   3B72 FF FF FF FF 
2121   3B76 FF FF FF FF 
2121   3B7A FF FF FF FF 
2121   3B7E FF FF FF FF 
2121   3B82 FF FF FF FF 
2121   3B86 FF FF FF FF 
2121   3B8A FF FF FF FF 
2121   3B8E FF FF FF FF 
2121   3B92 FF FF FF FF 
2121   3B96 FF FF FF FF 
2121   3B9A FF FF FF FF 
2121   3B9E FF FF FF FF 
2121   3BA2 FF FF FF FF 
2121   3BA6 FF FF FF FF 
2121   3BAA FF FF FF FF 
2121   3BAE FF FF FF FF 
2121   3BB2 FF FF FF FF 
2121   3BB6 FF FF FF FF 
2121   3BBA FF FF FF FF 
2121   3BBE FF FF FF FF 
2121   3BC2 FF FF FF FF 
2121   3BC6 FF FF FF FF 
2121   3BCA FF FF FF FF 
2121   3BCE FF FF FF FF 
2121   3BD2 FF FF FF FF 
2121   3BD6 FF FF FF FF 
2121   3BDA FF FF FF FF 
2121   3BDE FF FF FF FF 
2121   3BE2 FF FF FF FF 
2121   3BE6 FF FF FF FF 
2121   3BEA FF FF FF FF 
2121   3BEE FF FF FF FF 
2121   3BF2 FF FF FF FF 
2121   3BF6 FF FF FF FF 
2121   3BFA FF FF FF FF 
2121   3BFE FF FF FF FF 
2121   3C02 FF FF FF FF 
2121   3C06 FF FF FF FF 
2121   3C0A FF FF FF FF 
2121   3C0E FF FF FF FF 
2121   3C12 FF FF FF FF 
2121   3C16 FF FF FF FF 
2121   3C1A FF FF FF FF 
2121   3C1E FF FF FF FF 
2121   3C22 FF FF FF FF 
2121   3C26 FF FF FF FF 
2121   3C2A FF FF FF FF 
2121   3C2E FF FF FF FF 
2121   3C32 FF FF FF FF 
2121   3C36 FF FF FF FF 
2121   3C3A FF FF FF FF 
2121   3C3E FF FF FF FF 
2121   3C42 FF FF FF FF 
2121   3C46 FF FF FF FF 
2121   3C4A FF FF FF FF 
2121   3C4E FF FF FF FF 
2121   3C52 FF FF FF FF 
2121   3C56 FF FF FF FF 
2121   3C5A FF FF FF FF 
2121   3C5E FF FF FF FF 
2121   3C62 FF FF FF FF 
2121   3C66 FF FF FF FF 
2121   3C6A FF FF FF FF 
2121   3C6E FF FF FF FF 
2121   3C72 FF FF FF FF 
2121   3C76 FF FF FF FF 
2121   3C7A FF FF FF FF 
2121   3C7E FF FF FF FF 
2121   3C82 FF FF FF FF 
2121   3C86 FF FF FF FF 
2121   3C8A FF FF FF FF 
2121   3C8E FF FF FF FF 
2121   3C92 FF FF FF FF 
2121   3C96 FF FF FF FF 
2121   3C9A FF FF FF FF 
2121   3C9E FF FF FF FF 
2121   3CA2 FF FF FF FF 
2121   3CA6 FF FF FF FF 
2121   3CAA FF FF FF FF 
2121   3CAE FF FF FF FF 
2121   3CB2 FF FF FF FF 
2121   3CB6 FF FF FF FF 
2121   3CBA FF FF FF FF 
2121   3CBE FF FF FF FF 
2121   3CC2 FF FF FF FF 
2121   3CC6 FF FF FF FF 
2121   3CCA FF FF FF FF 
2121   3CCE FF FF FF FF 
2121   3CD2 FF FF FF FF 
2121   3CD6 FF FF FF FF 
2121   3CDA FF FF FF FF 
2121   3CDE FF FF FF FF 
2121   3CE2 FF FF FF FF 
2121   3CE6 FF FF FF FF 
2121   3CEA FF FF FF FF 
2121   3CEE FF FF FF FF 
2121   3CF2 FF FF FF FF 
2121   3CF6 FF FF FF FF 
2121   3CFA FF FF FF FF 
2121   3CFE FF FF FF FF 
2121   3D02 FF FF FF FF 
2121   3D06 FF FF FF FF 
2121   3D0A FF FF FF FF 
2121   3D0E FF FF FF FF 
2121   3D12 FF FF FF FF 
2121   3D16 FF FF FF FF 
2121   3D1A FF FF FF FF 
2121   3D1E FF FF FF FF 
2121   3D22 FF FF FF FF 
2121   3D26 FF FF FF FF 
2121   3D2A FF FF FF FF 
2121   3D2E FF FF FF FF 
2121   3D32 FF FF FF FF 
2121   3D36 FF FF FF FF 
2121   3D3A FF FF FF FF 
2121   3D3E FF FF FF FF 
2121   3D42 FF FF FF FF 
2121   3D46 FF FF FF FF 
2121   3D4A FF FF FF FF 
2121   3D4E FF FF FF FF 
2121   3D52 FF FF FF FF 
2121   3D56 FF FF FF FF 
2121   3D5A FF FF FF FF 
2121   3D5E FF FF FF FF 
2121   3D62 FF FF FF FF 
2121   3D66 FF FF FF FF 
2121   3D6A FF FF FF FF 
2121   3D6E FF FF FF FF 
2121   3D72 FF FF FF FF 
2121   3D76 FF FF FF FF 
2121   3D7A FF FF FF FF 
2121   3D7E FF FF FF FF 
2121   3D82 FF FF FF FF 
2121   3D86 FF FF FF FF 
2121   3D8A FF FF FF FF 
2121   3D8E FF FF FF FF 
2121   3D92 FF FF FF FF 
2121   3D96 FF FF FF FF 
2121   3D9A FF FF FF FF 
2121   3D9E FF FF FF FF 
2121   3DA2 FF FF FF FF 
2121   3DA6 FF FF FF FF 
2121   3DAA FF FF FF FF 
2121   3DAE FF FF FF FF 
2121   3DB2 FF FF FF FF 
2121   3DB6 FF FF FF FF 
2121   3DBA FF FF FF FF 
2121   3DBE FF FF FF FF 
2121   3DC2 FF FF FF FF 
2121   3DC6 FF FF FF FF 
2121   3DCA FF FF FF FF 
2121   3DCE FF FF FF FF 
2121   3DD2 FF FF FF FF 
2121   3DD6 FF FF FF FF 
2121   3DDA FF FF FF FF 
2121   3DDE FF FF FF FF 
2121   3DE2 FF FF FF FF 
2121   3DE6 FF FF FF FF 
2121   3DEA FF FF FF FF 
2121   3DEE FF FF FF FF 
2121   3DF2 FF FF FF FF 
2121   3DF6 FF FF FF FF 
2121   3DFA FF FF FF FF 
2121   3DFE FF FF FF FF 
2121   3E02 FF FF FF FF 
2121   3E06 FF FF FF FF 
2121   3E0A FF FF FF FF 
2121   3E0E FF FF FF FF 
2121   3E12 FF FF FF FF 
2121   3E16 FF FF FF FF 
2121   3E1A FF FF FF FF 
2121   3E1E FF FF FF FF 
2121   3E22 FF FF FF FF 
2121   3E26 FF FF FF FF 
2121   3E2A FF FF FF FF 
2121   3E2E FF FF FF FF 
2121   3E32 FF FF FF FF 
2121   3E36 FF FF FF FF 
2121   3E3A FF FF FF FF 
2121   3E3E FF FF FF FF 
2121   3E42 FF FF FF FF 
2121   3E46 FF FF FF FF 
2121   3E4A FF FF FF FF 
2121   3E4E FF FF FF FF 
2121   3E52 FF FF FF FF 
2121   3E56 FF FF FF FF 
2121   3E5A FF FF FF FF 
2121   3E5E FF FF FF FF 
2121   3E62 FF FF FF FF 
2121   3E66 FF FF FF FF 
2121   3E6A FF FF FF FF 
2121   3E6E FF FF FF FF 
2121   3E72 FF FF FF FF 
2121   3E76 FF FF FF FF 
2121   3E7A FF FF FF FF 
2121   3E7E FF FF FF FF 
2121   3E82 FF FF FF FF 
2121   3E86 FF FF FF FF 
2121   3E8A FF FF FF FF 
2121   3E8E FF FF FF FF 
2121   3E92 FF FF FF FF 
2121   3E96 FF FF FF FF 
2121   3E9A FF FF FF FF 
2121   3E9E FF FF FF FF 
2121   3EA2 FF FF FF FF 
2121   3EA6 FF FF FF FF 
2121   3EAA FF FF FF FF 
2121   3EAE FF FF FF FF 
2121   3EB2 FF FF FF FF 
2121   3EB6 FF FF FF FF 
2121   3EBA FF FF FF FF 
2121   3EBE FF FF FF FF 
2121   3EC2 FF FF FF FF 
2121   3EC6 FF FF FF FF 
2121   3ECA FF FF FF FF 
2121   3ECE FF FF FF FF 
2121   3ED2 FF FF FF FF 
2121   3ED6 FF FF FF FF 
2121   3EDA FF FF FF FF 
2121   3EDE FF FF FF FF 
2121   3EE2 FF FF FF FF 
2121   3EE6 FF FF FF FF 
2121   3EEA FF FF FF FF 
2121   3EEE FF FF FF FF 
2121   3EF2 FF FF FF FF 
2121   3EF6 FF FF FF FF 
2121   3EFA FF FF FF FF 
2121   3EFE FF FF FF FF 
2121   3F02 FF FF FF FF 
2121   3F06 FF FF FF FF 
2121   3F0A FF FF FF FF 
2121   3F0E FF FF FF FF 
2121   3F12 FF FF FF FF 
2121   3F16 FF FF FF FF 
2121   3F1A FF FF FF FF 
2121   3F1E FF FF FF FF 
2121   3F22 FF FF FF FF 
2121   3F26 FF FF FF FF 
2121   3F2A FF FF FF FF 
2121   3F2E FF FF FF FF 
2121   3F32 FF FF FF FF 
2121   3F36 FF FF FF FF 
2121   3F3A FF FF FF FF 
2121   3F3E FF FF FF FF 
2121   3F42 FF FF FF FF 
2121   3F46 FF FF FF FF 
2121   3F4A FF FF FF FF 
2121   3F4E FF FF FF FF 
2121   3F52 FF FF FF FF 
2121   3F56 FF FF FF FF 
2121   3F5A FF FF FF FF 
2121   3F5E FF FF FF FF 
2121   3F62 FF FF FF FF 
2121   3F66 FF FF FF FF 
2121   3F6A FF FF FF FF 
2121   3F6E FF FF FF FF 
2121   3F72 FF FF FF FF 
2121   3F76 FF FF FF FF 
2121   3F7A FF FF FF FF 
2121   3F7E FF FF FF FF 
2121   3F82 FF FF FF FF 
2121   3F86 FF FF FF FF 
2121   3F8A FF FF FF FF 
2121   3F8E FF FF FF FF 
2121   3F92 FF FF FF FF 
2121   3F96 FF FF FF FF 
2121   3F9A FF FF FF FF 
2121   3F9E FF FF FF FF 
2121   3FA2 FF FF FF FF 
2121   3FA6 FF FF FF FF 
2121   3FAA FF FF FF FF 
2121   3FAE FF FF FF FF 
2121   3FB2 FF FF FF FF 
2121   3FB6 FF FF FF FF 
2121   3FBA FF FF FF FF 
2121   3FBE FF FF FF FF 
2121   3FC2 FF FF FF FF 
2121   3FC6 FF FF FF FF 
2121   3FCA FF FF FF FF 
2121   3FCE FF FF FF FF 
2121   3FD2 FF FF FF FF 
2121   3FD6 FF FF FF FF 
2121   3FDA FF FF FF FF 
2121   3FDE FF FF FF FF 
2121   3FE2 FF FF FF FF 
2121   3FE6 FF FF FF FF 
2121   3FEA FF FF FF FF 
2121   3FEE FF FF FF FF 
2121   3FF2 FF FF FF FF 
2121   3FF6 FF FF FF FF 
2121   3FFA FF FF FF FF 
2121   3FFE FF FF FF FF 
2121   4002 FF FF FF FF 
2121   4006 FF FF FF FF 
2121   400A FF FF FF FF 
2121   400E FF FF FF FF 
2121   4012 FF FF FF FF 
2121   4016 FF FF FF FF 
2121   401A FF FF FF FF 
2121   401E FF FF FF FF 
2121   4022 FF FF FF FF 
2121   4026 FF FF FF FF 
2121   402A FF FF FF FF 
2121   402E FF FF FF FF 
2121   4032 FF FF FF FF 
2121   4036 FF FF FF FF 
2121   403A FF FF FF FF 
2121   403E FF FF FF FF 
2121   4042 FF FF FF FF 
2121   4046 FF FF FF FF 
2121   404A FF FF FF FF 
2121   404E FF FF FF FF 
2121   4052 FF FF FF FF 
2121   4056 FF FF FF FF 
2121   405A FF FF FF FF 
2121   405E FF FF FF FF 
2121   4062 FF FF FF FF 
2121   4066 FF FF FF FF 
2121   406A FF FF FF FF 
2121   406E FF FF FF FF 
2121   4072 FF FF FF FF 
2121   4076 FF FF FF FF 
2121   407A FF FF FF FF 
2121   407E FF FF FF FF 
2121   4082 FF FF FF FF 
2121   4086 FF FF FF FF 
2121   408A FF FF FF FF 
2121   408E FF FF FF FF 
2121   4092 FF FF FF FF 
2121   4096 FF FF FF FF 
2121   409A FF FF FF FF 
2121   409E FF FF FF FF 
2121   40A2 FF FF FF FF 
2121   40A6 FF FF FF FF 
2121   40AA FF FF FF FF 
2121   40AE FF FF FF FF 
2121   40B2 FF FF FF FF 
2121   40B6 FF FF FF FF 
2121   40BA FF FF FF FF 
2121   40BE FF FF FF FF 
2121   40C2 FF FF FF FF 
2121   40C6 FF FF FF FF 
2121   40CA FF FF FF FF 
2121   40CE FF FF FF FF 
2121   40D2 FF FF FF FF 
2121   40D6 FF FF FF FF 
2121   40DA FF FF FF FF 
2121   40DE FF FF FF FF 
2121   40E2 FF FF FF FF 
2121   40E6 FF FF FF FF 
2121   40EA FF FF FF FF 
2121   40EE FF FF FF FF 
2121   40F2 FF FF FF FF 
2121   40F6 FF FF FF FF 
2121   40FA FF FF FF FF 
2121   40FE FF FF FF FF 
2121   4102 FF FF FF FF 
2121   4106 FF FF FF FF 
2121   410A FF FF FF FF 
2121   410E FF FF FF FF 
2121   4112 FF FF FF FF 
2121   4116 FF FF FF FF 
2121   411A FF FF FF FF 
2121   411E FF FF FF FF 
2121   4122 FF FF FF FF 
2121   4126 FF FF FF FF 
2121   412A FF FF FF FF 
2121   412E FF FF FF FF 
2121   4132 FF FF FF FF 
2121   4136 FF FF FF FF 
2121   413A FF FF FF FF 
2121   413E FF FF FF FF 
2121   4142 FF FF FF FF 
2121   4146 FF FF FF FF 
2121   414A FF FF FF FF 
2121   414E FF FF FF FF 
2121   4152 FF FF FF FF 
2121   4156 FF FF FF FF 
2121   415A FF FF FF FF 
2121   415E FF FF FF FF 
2121   4162 FF FF FF FF 
2121   4166 FF FF FF FF 
2121   416A FF FF FF FF 
2121   416E FF FF FF FF 
2121   4172 FF FF FF FF 
2121   4176 FF FF FF FF 
2121   417A FF FF FF FF 
2121   417E FF FF FF FF 
2121   4182 FF FF FF FF 
2121   4186 FF FF FF FF 
2121   418A FF FF FF FF 
2121   418E FF FF FF FF 
2121   4192 FF FF FF FF 
2121   4196 FF FF FF FF 
2121   419A FF FF FF FF 
2121   419E FF FF FF FF 
2121   41A2 FF FF FF FF 
2121   41A6 FF FF FF FF 
2121   41AA FF FF FF FF 
2121   41AE FF FF FF FF 
2121   41B2 FF FF FF FF 
2121   41B6 FF FF FF FF 
2121   41BA FF FF FF FF 
2121   41BE FF FF FF FF 
2121   41C2 FF FF FF FF 
2121   41C6 FF FF FF FF 
2121   41CA FF FF FF FF 
2121   41CE FF FF FF FF 
2121   41D2 FF FF FF FF 
2121   41D6 FF FF FF FF 
2121   41DA FF FF FF FF 
2121   41DE FF FF FF FF 
2121   41E2 FF FF FF FF 
2121   41E6 FF FF FF FF 
2121   41EA FF FF FF FF 
2121   41EE FF FF FF FF 
2121   41F2 FF FF FF FF 
2121   41F6 FF FF FF FF 
2121   41FA FF FF FF FF 
2121   41FE FF FF FF FF 
2121   4202 FF FF FF FF 
2121   4206 FF FF FF FF 
2121   420A FF FF FF FF 
2121   420E FF FF FF FF 
2121   4212 FF FF FF FF 
2121   4216 FF FF FF FF 
2121   421A FF FF FF FF 
2121   421E FF FF FF FF 
2121   4222 FF FF FF FF 
2121   4226 FF FF FF FF 
2121   422A FF FF FF FF 
2121   422E FF FF FF FF 
2121   4232 FF FF FF FF 
2121   4236 FF FF FF FF 
2121   423A FF FF FF FF 
2121   423E FF FF FF FF 
2121   4242 FF FF FF FF 
2121   4246 FF FF FF FF 
2121   424A FF FF FF FF 
2121   424E FF FF FF FF 
2121   4252 FF FF FF FF 
2121   4256 FF FF FF FF 
2121   425A FF FF FF FF 
2121   425E FF FF FF FF 
2121   4262 FF FF FF FF 
2121   4266 FF FF FF FF 
2121   426A FF FF FF FF 
2121   426E FF FF FF FF 
2121   4272 FF FF FF FF 
2121   4276 FF FF FF FF 
2121   427A FF FF FF FF 
2121   427E FF FF FF FF 
2121   4282 FF FF FF FF 
2121   4286 FF FF FF FF 
2121   428A FF FF FF FF 
2121   428E FF FF FF FF 
2121   4292 FF FF FF FF 
2121   4296 FF FF FF FF 
2121   429A FF FF FF FF 
2121   429E FF FF FF FF 
2121   42A2 FF FF FF FF 
2121   42A6 FF FF FF FF 
2121   42AA FF FF FF FF 
2121   42AE FF FF FF FF 
2121   42B2 FF FF FF FF 
2121   42B6 FF FF FF FF 
2121   42BA FF FF FF FF 
2121   42BE FF FF FF FF 
2121   42C2 FF FF FF FF 
2121   42C6 FF FF FF FF 
2121   42CA FF FF FF FF 
2121   42CE FF FF FF FF 
2121   42D2 FF FF FF FF 
2121   42D6 FF FF FF FF 
2121   42DA FF FF FF FF 
2121   42DE FF FF FF FF 
2121   42E2 FF FF FF FF 
2121   42E6 FF FF FF FF 
2121   42EA FF FF FF FF 
2121   42EE FF FF FF FF 
2121   42F2 FF FF FF FF 
2121   42F6 FF FF FF FF 
2121   42FA FF FF FF FF 
2121   42FE FF FF FF FF 
2121   4302 FF FF FF FF 
2121   4306 FF FF FF FF 
2121   430A FF FF FF FF 
2121   430E FF FF FF FF 
2121   4312 FF FF FF FF 
2121   4316 FF FF FF FF 
2121   431A FF FF FF FF 
2121   431E FF FF FF FF 
2121   4322 FF FF FF FF 
2121   4326 FF FF FF FF 
2121   432A FF FF FF FF 
2121   432E FF FF FF FF 
2121   4332 FF FF FF FF 
2121   4336 FF FF FF FF 
2121   433A FF FF FF FF 
2121   433E FF FF FF FF 
2121   4342 FF FF FF FF 
2121   4346 FF FF FF FF 
2121   434A FF FF FF FF 
2121   434E FF FF FF FF 
2121   4352 FF FF FF FF 
2121   4356 FF FF FF FF 
2121   435A FF FF FF FF 
2121   435E FF FF FF FF 
2121   4362 FF FF FF FF 
2121   4366 FF FF FF FF 
2121   436A FF FF FF FF 
2121   436E FF FF FF FF 
2121   4372 FF FF FF FF 
2121   4376 FF FF FF FF 
2121   437A FF FF FF FF 
2121   437E FF FF FF FF 
2121   4382 FF FF FF FF 
2121   4386 FF FF FF FF 
2121   438A FF FF FF FF 
2121   438E FF FF FF FF 
2121   4392 FF FF FF FF 
2121   4396 FF FF FF FF 
2121   439A FF FF FF FF 
2121   439E FF FF FF FF 
2121   43A2 FF FF FF FF 
2121   43A6 FF FF FF FF 
2121   43AA FF FF FF FF 
2121   43AE FF FF FF FF 
2121   43B2 FF FF FF FF 
2121   43B6 FF FF FF FF 
2121   43BA FF FF FF FF 
2121   43BE FF FF FF FF 
2121   43C2 FF FF FF FF 
2121   43C6 FF FF FF FF 
2121   43CA FF FF FF FF 
2121   43CE FF FF FF FF 
2121   43D2 FF FF FF FF 
2121   43D6 FF FF FF FF 
2121   43DA FF FF FF FF 
2121   43DE FF FF FF FF 
2121   43E2 FF FF FF FF 
2121   43E6 FF FF FF FF 
2121   43EA FF FF FF FF 
2121   43EE FF FF FF FF 
2121   43F2 FF FF FF FF 
2121   43F6 FF FF FF FF 
2121   43FA FF FF FF FF 
2121   43FE FF FF FF FF 
2121   4402 FF FF FF FF 
2121   4406 FF FF FF FF 
2121   440A FF FF FF FF 
2121   440E FF FF FF FF 
2121   4412 FF FF FF FF 
2121   4416 FF FF FF FF 
2121   441A FF FF FF FF 
2121   441E FF FF FF FF 
2121   4422 FF FF FF FF 
2121   4426 FF FF FF FF 
2121   442A FF FF FF FF 
2121   442E FF FF FF FF 
2121   4432 FF FF FF FF 
2121   4436 FF FF FF FF 
2121   443A FF FF FF FF 
2121   443E FF FF FF FF 
2121   4442 FF FF FF FF 
2121   4446 FF FF FF FF 
2121   444A FF FF FF FF 
2121   444E FF FF FF FF 
2121   4452 FF FF FF FF 
2121   4456 FF FF FF FF 
2121   445A FF FF FF FF 
2121   445E FF FF FF FF 
2121   4462 FF FF FF FF 
2121   4466 FF FF FF FF 
2121   446A FF FF FF FF 
2121   446E FF FF FF FF 
2121   4472 FF FF FF FF 
2121   4476 FF FF FF FF 
2121   447A FF FF FF FF 
2121   447E FF FF FF FF 
2121   4482 FF FF FF FF 
2121   4486 FF FF FF FF 
2121   448A FF FF FF FF 
2121   448E FF FF FF FF 
2121   4492 FF FF FF FF 
2121   4496 FF FF FF FF 
2121   449A FF FF FF FF 
2121   449E FF FF FF FF 
2121   44A2 FF FF FF FF 
2121   44A6 FF FF FF FF 
2121   44AA FF FF FF FF 
2121   44AE FF FF FF FF 
2121   44B2 FF FF FF FF 
2121   44B6 FF FF FF FF 
2121   44BA FF FF FF FF 
2121   44BE FF FF FF FF 
2121   44C2 FF FF FF FF 
2121   44C6 FF FF FF FF 
2121   44CA FF FF FF FF 
2121   44CE FF FF FF FF 
2121   44D2 FF FF FF FF 
2121   44D6 FF FF FF FF 
2121   44DA FF FF FF FF 
2121   44DE FF FF FF FF 
2121   44E2 FF FF FF FF 
2121   44E6 FF FF FF FF 
2121   44EA FF FF FF FF 
2121   44EE FF FF FF FF 
2121   44F2 FF FF FF FF 
2121   44F6 FF FF FF FF 
2121   44FA FF FF FF FF 
2121   44FE FF FF FF FF 
2121   4502 FF FF FF FF 
2121   4506 FF FF FF FF 
2121   450A FF FF FF FF 
2121   450E FF FF FF FF 
2121   4512 FF FF FF FF 
2121   4516 FF FF FF FF 
2121   451A FF FF FF FF 
2121   451E FF FF FF FF 
2121   4522 FF FF FF FF 
2121   4526 FF FF FF FF 
2121   452A FF FF FF FF 
2121   452E FF FF FF FF 
2121   4532 FF FF FF FF 
2121   4536 FF FF FF FF 
2121   453A FF FF FF FF 
2121   453E FF FF FF FF 
2121   4542 FF FF FF FF 
2121   4546 FF FF FF FF 
2121   454A FF FF FF FF 
2121   454E FF FF FF FF 
2121   4552 FF FF FF FF 
2121   4556 FF FF FF FF 
2121   455A FF FF FF FF 
2121   455E FF FF FF FF 
2121   4562 FF FF FF FF 
2121   4566 FF FF FF FF 
2121   456A FF FF FF FF 
2121   456E FF FF FF FF 
2121   4572 FF FF FF FF 
2121   4576 FF FF FF FF 
2121   457A FF FF FF FF 
2121   457E FF FF FF FF 
2121   4582 FF FF FF FF 
2121   4586 FF FF FF FF 
2121   458A FF FF FF FF 
2121   458E FF FF FF FF 
2121   4592 FF FF FF FF 
2121   4596 FF FF FF FF 
2121   459A FF FF FF FF 
2121   459E FF FF FF FF 
2121   45A2 FF FF FF FF 
2121   45A6 FF FF FF FF 
2121   45AA FF FF FF FF 
2121   45AE FF FF FF FF 
2121   45B2 FF FF FF FF 
2121   45B6 FF FF FF FF 
2121   45BA FF FF FF FF 
2121   45BE FF FF FF FF 
2121   45C2 FF FF FF FF 
2121   45C6 FF FF FF FF 
2121   45CA FF FF FF FF 
2121   45CE FF FF FF FF 
2121   45D2 FF FF FF FF 
2121   45D6 FF FF FF FF 
2121   45DA FF FF FF FF 
2121   45DE FF FF FF FF 
2121   45E2 FF FF FF FF 
2121   45E6 FF FF FF FF 
2121   45EA FF FF FF FF 
2121   45EE FF FF FF FF 
2121   45F2 FF FF FF FF 
2121   45F6 FF FF FF FF 
2121   45FA FF FF FF FF 
2121   45FE FF FF FF FF 
2121   4602 FF FF FF FF 
2121   4606 FF FF FF FF 
2121   460A FF FF FF FF 
2121   460E FF FF FF FF 
2121   4612 FF FF FF FF 
2121   4616 FF FF FF FF 
2121   461A FF FF FF FF 
2121   461E FF FF FF FF 
2121   4622 FF FF FF FF 
2121   4626 FF FF FF FF 
2121   462A FF FF FF FF 
2121   462E FF FF FF FF 
2121   4632 FF FF FF FF 
2121   4636 FF FF FF FF 
2121   463A FF FF FF FF 
2121   463E FF FF FF FF 
2121   4642 FF FF FF FF 
2121   4646 FF FF FF FF 
2121   464A FF FF FF FF 
2121   464E FF FF FF FF 
2121   4652 FF FF FF FF 
2121   4656 FF FF FF FF 
2121   465A FF FF FF FF 
2121   465E FF FF FF FF 
2121   4662 FF FF FF FF 
2121   4666 FF FF FF FF 
2121   466A FF FF FF FF 
2121   466E FF FF FF FF 
2121   4672 FF FF FF FF 
2121   4676 FF FF FF FF 
2121   467A FF FF FF FF 
2121   467E FF FF FF FF 
2121   4682 FF FF FF FF 
2121   4686 FF FF FF FF 
2121   468A FF FF FF FF 
2121   468E FF FF FF FF 
2121   4692 FF FF FF FF 
2121   4696 FF FF FF FF 
2121   469A FF FF FF FF 
2121   469E FF FF FF FF 
2121   46A2 FF FF FF FF 
2121   46A6 FF FF FF FF 
2121   46AA FF FF FF FF 
2121   46AE FF FF FF FF 
2121   46B2 FF FF FF FF 
2121   46B6 FF FF FF FF 
2121   46BA FF FF FF FF 
2121   46BE FF FF FF FF 
2121   46C2 FF FF FF FF 
2121   46C6 FF FF FF FF 
2121   46CA FF FF FF FF 
2121   46CE FF FF FF FF 
2121   46D2 FF FF FF FF 
2121   46D6 FF FF FF FF 
2121   46DA FF FF FF FF 
2121   46DE FF FF FF FF 
2121   46E2 FF FF FF FF 
2121   46E6 FF FF FF FF 
2121   46EA FF FF FF FF 
2121   46EE FF FF FF FF 
2121   46F2 FF FF FF FF 
2121   46F6 FF FF FF FF 
2121   46FA FF FF FF FF 
2121   46FE FF FF FF FF 
2121   4702 FF FF FF FF 
2121   4706 FF FF FF FF 
2121   470A FF FF FF FF 
2121   470E FF FF FF FF 
2121   4712 FF FF FF FF 
2121   4716 FF FF FF FF 
2121   471A FF FF FF FF 
2121   471E FF FF FF FF 
2121   4722 FF FF FF FF 
2121   4726 FF FF FF FF 
2121   472A FF FF FF FF 
2121   472E FF FF FF FF 
2121   4732 FF FF FF FF 
2121   4736 FF FF FF FF 
2121   473A FF FF FF FF 
2121   473E FF FF FF FF 
2121   4742 FF FF FF FF 
2121   4746 FF FF FF FF 
2121   474A FF FF FF FF 
2121   474E FF FF FF FF 
2121   4752 FF FF FF FF 
2121   4756 FF FF FF FF 
2121   475A FF FF FF FF 
2121   475E FF FF FF FF 
2121   4762 FF FF FF FF 
2121   4766 FF FF FF FF 
2121   476A FF FF FF FF 
2121   476E FF FF FF FF 
2121   4772 FF FF FF FF 
2121   4776 FF FF FF FF 
2121   477A FF FF FF FF 
2121   477E FF FF FF FF 
2121   4782 FF FF FF FF 
2121   4786 FF FF FF FF 
2121   478A FF FF FF FF 
2121   478E FF FF FF FF 
2121   4792 FF FF FF FF 
2121   4796 FF FF FF FF 
2121   479A FF FF FF FF 
2121   479E FF FF FF FF 
2121   47A2 FF FF FF FF 
2121   47A6 FF FF FF FF 
2121   47AA FF FF FF FF 
2121   47AE FF FF FF FF 
2121   47B2 FF FF FF FF 
2121   47B6 FF FF FF FF 
2121   47BA FF FF FF FF 
2121   47BE FF FF FF FF 
2121   47C2 FF FF FF FF 
2121   47C6 FF FF FF FF 
2121   47CA FF FF FF FF 
2121   47CE FF FF FF FF 
2121   47D2 FF FF FF FF 
2121   47D6 FF FF FF FF 
2121   47DA FF FF FF FF 
2121   47DE FF FF FF FF 
2121   47E2 FF FF FF FF 
2121   47E6 FF FF FF FF 
2121   47EA FF FF FF FF 
2121   47EE FF FF FF FF 
2121   47F2 FF FF FF FF 
2121   47F6 FF FF FF FF 
2121   47FA FF FF FF FF 
2121   47FE FF FF FF FF 
2121   4802 FF FF FF FF 
2121   4806 FF FF FF FF 
2121   480A FF FF FF FF 
2121   480E FF FF FF FF 
2121   4812 FF FF FF FF 
2121   4816 FF FF FF FF 
2121   481A FF FF FF FF 
2121   481E FF FF FF FF 
2121   4822 FF FF FF FF 
2121   4826 FF FF FF FF 
2121   482A FF FF FF FF 
2121   482E FF FF FF FF 
2121   4832 FF FF FF FF 
2121   4836 FF FF FF FF 
2121   483A FF FF FF FF 
2121   483E FF FF FF FF 
2121   4842 FF FF FF FF 
2121   4846 FF FF FF FF 
2121   484A FF FF FF FF 
2121   484E FF FF FF FF 
2121   4852 FF FF FF FF 
2121   4856 FF FF FF FF 
2121   485A FF FF FF FF 
2121   485E FF FF FF FF 
2121   4862 FF FF FF FF 
2121   4866 FF FF FF FF 
2121   486A FF FF FF FF 
2121   486E FF FF FF FF 
2121   4872 FF FF FF FF 
2121   4876 FF FF FF FF 
2121   487A FF FF FF FF 
2121   487E FF FF FF FF 
2121   4882 FF FF FF FF 
2121   4886 FF FF FF FF 
2121   488A FF FF FF FF 
2121   488E FF FF FF FF 
2121   4892 FF FF FF FF 
2121   4896 FF FF FF FF 
2121   489A FF FF FF FF 
2121   489E FF FF FF FF 
2121   48A2 FF FF FF FF 
2121   48A6 FF FF FF FF 
2121   48AA FF FF FF FF 
2121   48AE FF FF FF FF 
2121   48B2 FF FF FF FF 
2121   48B6 FF FF FF FF 
2121   48BA FF FF FF FF 
2121   48BE FF FF FF FF 
2121   48C2 FF FF FF FF 
2121   48C6 FF FF FF FF 
2121   48CA FF FF FF FF 
2121   48CE FF FF FF FF 
2121   48D2 FF FF FF FF 
2121   48D6 FF FF FF FF 
2121   48DA FF FF FF FF 
2121   48DE FF FF FF FF 
2121   48E2 FF FF FF FF 
2121   48E6 FF FF FF FF 
2121   48EA FF FF FF FF 
2121   48EE FF FF FF FF 
2121   48F2 FF FF FF FF 
2121   48F6 FF FF FF FF 
2121   48FA FF FF FF FF 
2121   48FE FF FF FF FF 
2121   4902 FF FF FF FF 
2121   4906 FF FF FF FF 
2121   490A FF FF FF FF 
2121   490E FF FF FF FF 
2121   4912 FF FF FF FF 
2121   4916 FF FF FF FF 
2121   491A FF FF FF FF 
2121   491E FF FF FF FF 
2121   4922 FF FF FF FF 
2121   4926 FF FF FF FF 
2121   492A FF FF FF FF 
2121   492E FF FF FF FF 
2121   4932 FF FF FF FF 
2121   4936 FF FF FF FF 
2121   493A FF FF FF FF 
2121   493E FF FF FF FF 
2121   4942 FF FF FF FF 
2121   4946 FF FF FF FF 
2121   494A FF FF FF FF 
2121   494E FF FF FF FF 
2121   4952 FF FF FF FF 
2121   4956 FF FF FF FF 
2121   495A FF FF FF FF 
2121   495E FF FF FF FF 
2121   4962 FF FF FF FF 
2121   4966 FF FF FF FF 
2121   496A FF FF FF FF 
2121   496E FF FF FF FF 
2121   4972 FF FF FF FF 
2121   4976 FF FF FF FF 
2121   497A FF FF FF FF 
2121   497E FF FF FF FF 
2121   4982 FF FF FF FF 
2121   4986 FF FF FF FF 
2121   498A FF FF FF FF 
2121   498E FF FF FF FF 
2121   4992 FF FF FF FF 
2121   4996 FF FF FF FF 
2121   499A FF FF FF FF 
2121   499E FF FF FF FF 
2121   49A2 FF FF FF FF 
2121   49A6 FF FF FF FF 
2121   49AA FF FF FF FF 
2121   49AE FF FF FF FF 
2121   49B2 FF FF FF FF 
2121   49B6 FF FF FF FF 
2121   49BA FF FF FF FF 
2121   49BE FF FF FF FF 
2121   49C2 FF FF FF FF 
2121   49C6 FF FF FF FF 
2121   49CA FF FF FF FF 
2121   49CE FF FF FF FF 
2121   49D2 FF FF FF FF 
2121   49D6 FF FF FF FF 
2121   49DA FF FF FF FF 
2121   49DE FF FF FF FF 
2121   49E2 FF FF FF FF 
2121   49E6 FF FF FF FF 
2121   49EA FF FF FF FF 
2121   49EE FF FF FF FF 
2121   49F2 FF FF FF FF 
2121   49F6 FF FF FF FF 
2121   49FA FF FF FF FF 
2121   49FE FF FF FF FF 
2121   4A02 FF FF FF FF 
2121   4A06 FF FF FF FF 
2121   4A0A FF FF FF FF 
2121   4A0E FF FF FF FF 
2121   4A12 FF FF FF FF 
2121   4A16 FF FF FF FF 
2121   4A1A FF FF FF FF 
2121   4A1E FF FF FF FF 
2121   4A22 FF FF FF FF 
2121   4A26 FF FF FF FF 
2121   4A2A FF FF FF FF 
2121   4A2E FF FF FF FF 
2121   4A32 FF FF FF FF 
2121   4A36 FF FF FF FF 
2121   4A3A FF FF FF FF 
2121   4A3E FF FF FF FF 
2121   4A42 FF FF FF FF 
2121   4A46 FF FF FF FF 
2121   4A4A FF FF FF FF 
2121   4A4E FF FF FF FF 
2121   4A52 FF FF FF FF 
2121   4A56 FF FF FF FF 
2121   4A5A FF FF FF FF 
2121   4A5E FF FF FF FF 
2121   4A62 FF FF FF FF 
2121   4A66 FF FF FF FF 
2121   4A6A FF FF FF FF 
2121   4A6E FF FF FF FF 
2121   4A72 FF FF FF FF 
2121   4A76 FF FF FF FF 
2121   4A7A FF FF FF FF 
2121   4A7E FF FF FF FF 
2121   4A82 FF FF FF FF 
2121   4A86 FF FF FF FF 
2121   4A8A FF FF FF FF 
2121   4A8E FF FF FF FF 
2121   4A92 FF FF FF FF 
2121   4A96 FF FF FF FF 
2121   4A9A FF FF FF FF 
2121   4A9E FF FF FF FF 
2121   4AA2 FF FF FF FF 
2121   4AA6 FF FF FF FF 
2121   4AAA FF FF FF FF 
2121   4AAE FF FF FF FF 
2121   4AB2 FF FF FF FF 
2121   4AB6 FF FF FF FF 
2121   4ABA FF FF FF FF 
2121   4ABE FF FF FF FF 
2121   4AC2 FF FF FF FF 
2121   4AC6 FF FF FF FF 
2121   4ACA FF FF FF FF 
2121   4ACE FF FF FF FF 
2121   4AD2 FF FF FF FF 
2121   4AD6 FF FF FF FF 
2121   4ADA FF FF FF FF 
2121   4ADE FF FF FF FF 
2121   4AE2 FF FF FF FF 
2121   4AE6 FF FF FF FF 
2121   4AEA FF FF FF FF 
2121   4AEE FF FF FF FF 
2121   4AF2 FF FF FF FF 
2121   4AF6 FF FF FF FF 
2121   4AFA FF FF FF FF 
2121   4AFE FF FF FF FF 
2121   4B02 FF FF FF FF 
2121   4B06 FF FF FF FF 
2121   4B0A FF FF FF FF 
2121   4B0E FF FF FF FF 
2121   4B12 FF FF FF FF 
2121   4B16 FF FF FF FF 
2121   4B1A FF FF FF FF 
2121   4B1E FF FF FF FF 
2121   4B22 FF FF FF FF 
2121   4B26 FF FF FF FF 
2121   4B2A FF FF FF FF 
2121   4B2E FF FF FF FF 
2121   4B32 FF FF FF FF 
2121   4B36 FF FF FF FF 
2121   4B3A FF FF FF FF 
2121   4B3E FF FF FF FF 
2121   4B42 FF FF FF FF 
2121   4B46 FF FF FF FF 
2121   4B4A FF FF FF FF 
2121   4B4E FF FF FF FF 
2121   4B52 FF FF FF FF 
2121   4B56 FF FF FF FF 
2121   4B5A FF FF FF FF 
2121   4B5E FF FF FF FF 
2121   4B62 FF FF FF FF 
2121   4B66 FF FF FF FF 
2121   4B6A FF FF FF FF 
2121   4B6E FF FF FF FF 
2121   4B72 FF FF FF FF 
2121   4B76 FF FF FF FF 
2121   4B7A FF FF FF FF 
2121   4B7E FF FF FF FF 
2121   4B82 FF FF FF FF 
2121   4B86 FF FF FF FF 
2121   4B8A FF FF FF FF 
2121   4B8E FF FF FF FF 
2121   4B92 FF FF FF FF 
2121   4B96 FF FF FF FF 
2121   4B9A FF FF FF FF 
2121   4B9E FF FF FF FF 
2121   4BA2 FF FF FF FF 
2121   4BA6 FF FF FF FF 
2121   4BAA FF FF FF FF 
2121   4BAE FF FF FF FF 
2121   4BB2 FF FF FF FF 
2121   4BB6 FF FF FF FF 
2121   4BBA FF FF FF FF 
2121   4BBE FF FF FF FF 
2121   4BC2 FF FF FF FF 
2121   4BC6 FF FF FF FF 
2121   4BCA FF FF FF FF 
2121   4BCE FF FF FF FF 
2121   4BD2 FF FF FF FF 
2121   4BD6 FF FF FF FF 
2121   4BDA FF FF FF FF 
2121   4BDE FF FF FF FF 
2121   4BE2 FF FF FF FF 
2121   4BE6 FF FF FF FF 
2121   4BEA FF FF FF FF 
2121   4BEE FF FF FF FF 
2121   4BF2 FF FF FF FF 
2121   4BF6 FF FF FF FF 
2121   4BFA FF FF FF FF 
2121   4BFE FF FF FF FF 
2121   4C02 FF FF FF FF 
2121   4C06 FF FF FF FF 
2121   4C0A FF FF FF FF 
2121   4C0E FF FF FF FF 
2121   4C12 FF FF FF FF 
2121   4C16 FF FF FF FF 
2121   4C1A FF FF FF FF 
2121   4C1E FF FF FF FF 
2121   4C22 FF FF FF FF 
2121   4C26 FF FF FF FF 
2121   4C2A FF FF FF FF 
2121   4C2E FF FF FF FF 
2121   4C32 FF FF FF FF 
2121   4C36 FF FF FF FF 
2121   4C3A FF FF FF FF 
2121   4C3E FF FF FF FF 
2121   4C42 FF FF FF FF 
2121   4C46 FF FF FF FF 
2121   4C4A FF FF FF FF 
2121   4C4E FF FF FF FF 
2121   4C52 FF FF FF FF 
2121   4C56 FF FF FF FF 
2121   4C5A FF FF FF FF 
2121   4C5E FF FF FF FF 
2121   4C62 FF FF FF FF 
2121   4C66 FF FF FF FF 
2121   4C6A FF FF FF FF 
2121   4C6E FF FF FF FF 
2121   4C72 FF FF FF FF 
2121   4C76 FF FF FF FF 
2121   4C7A FF FF FF FF 
2121   4C7E FF FF FF FF 
2121   4C82 FF FF FF FF 
2121   4C86 FF FF FF FF 
2121   4C8A FF FF FF FF 
2121   4C8E FF FF FF FF 
2121   4C92 FF FF FF FF 
2121   4C96 FF FF FF FF 
2121   4C9A FF FF FF FF 
2121   4C9E FF FF FF FF 
2121   4CA2 FF FF FF FF 
2121   4CA6 FF FF FF FF 
2121   4CAA FF FF FF FF 
2121   4CAE FF FF FF FF 
2121   4CB2 FF FF FF FF 
2121   4CB6 FF FF FF FF 
2121   4CBA FF FF FF FF 
2121   4CBE FF FF FF FF 
2121   4CC2 FF FF FF FF 
2121   4CC6 FF FF FF FF 
2121   4CCA FF FF FF FF 
2121   4CCE FF FF FF FF 
2121   4CD2 FF FF FF FF 
2121   4CD6 FF FF FF FF 
2121   4CDA FF FF FF FF 
2121   4CDE FF FF FF FF 
2121   4CE2 FF FF FF FF 
2121   4CE6 FF FF FF FF 
2121   4CEA FF FF FF FF 
2121   4CEE FF FF FF FF 
2121   4CF2 FF FF FF FF 
2121   4CF6 FF FF FF FF 
2121   4CFA FF FF FF FF 
2121   4CFE FF FF FF FF 
2121   4D02 FF FF FF FF 
2121   4D06 FF FF FF FF 
2121   4D0A FF FF FF FF 
2121   4D0E FF FF FF FF 
2121   4D12 FF FF FF FF 
2121   4D16 FF FF FF FF 
2121   4D1A FF FF FF FF 
2121   4D1E FF FF FF FF 
2121   4D22 FF FF FF FF 
2121   4D26 FF FF FF FF 
2121   4D2A FF FF FF FF 
2121   4D2E FF FF FF FF 
2121   4D32 FF FF FF FF 
2121   4D36 FF FF FF FF 
2121   4D3A FF FF FF FF 
2121   4D3E FF FF FF FF 
2121   4D42 FF FF FF FF 
2121   4D46 FF FF FF FF 
2121   4D4A FF FF FF FF 
2121   4D4E FF FF FF FF 
2121   4D52 FF FF FF FF 
2121   4D56 FF FF FF FF 
2121   4D5A FF FF FF FF 
2121   4D5E FF FF FF FF 
2121   4D62 FF FF FF FF 
2121   4D66 FF FF FF FF 
2121   4D6A FF FF FF FF 
2121   4D6E FF FF FF FF 
2121   4D72 FF FF FF FF 
2121   4D76 FF FF FF FF 
2121   4D7A FF FF FF FF 
2121   4D7E FF FF FF FF 
2121   4D82 FF FF FF FF 
2121   4D86 FF FF FF FF 
2121   4D8A FF FF FF FF 
2121   4D8E FF FF FF FF 
2121   4D92 FF FF FF FF 
2121   4D96 FF FF FF FF 
2121   4D9A FF FF FF FF 
2121   4D9E FF FF FF FF 
2121   4DA2 FF FF FF FF 
2121   4DA6 FF FF FF FF 
2121   4DAA FF FF FF FF 
2121   4DAE FF FF FF FF 
2121   4DB2 FF FF FF FF 
2121   4DB6 FF FF FF FF 
2121   4DBA FF FF FF FF 
2121   4DBE FF FF FF FF 
2121   4DC2 FF FF FF FF 
2121   4DC6 FF FF FF FF 
2121   4DCA FF FF FF FF 
2121   4DCE FF FF FF FF 
2121   4DD2 FF FF FF FF 
2121   4DD6 FF FF FF FF 
2121   4DDA FF FF FF FF 
2121   4DDE FF FF FF FF 
2121   4DE2 FF FF FF FF 
2121   4DE6 FF FF FF FF 
2121   4DEA FF FF FF FF 
2121   4DEE FF FF FF FF 
2121   4DF2 FF FF FF FF 
2121   4DF6 FF FF FF FF 
2121   4DFA FF FF FF FF 
2121   4DFE FF FF FF FF 
2121   4E02 FF FF FF FF 
2121   4E06 FF FF FF FF 
2121   4E0A FF FF FF FF 
2121   4E0E FF FF FF FF 
2121   4E12 FF FF FF FF 
2121   4E16 FF FF FF FF 
2121   4E1A FF FF FF FF 
2121   4E1E FF FF FF FF 
2121   4E22 FF FF FF FF 
2121   4E26 FF FF FF FF 
2121   4E2A FF FF FF FF 
2121   4E2E FF FF FF FF 
2121   4E32 FF FF FF FF 
2121   4E36 FF FF FF FF 
2121   4E3A FF FF FF FF 
2121   4E3E FF FF FF FF 
2121   4E42 FF FF FF FF 
2121   4E46 FF FF FF FF 
2121   4E4A FF FF FF FF 
2121   4E4E FF FF FF FF 
2121   4E52 FF FF FF FF 
2121   4E56 FF FF FF FF 
2121   4E5A FF FF FF FF 
2121   4E5E FF FF FF FF 
2121   4E62 FF FF FF FF 
2121   4E66 FF FF FF FF 
2121   4E6A FF FF FF FF 
2121   4E6E FF FF FF FF 
2121   4E72 FF FF FF FF 
2121   4E76 FF FF FF FF 
2121   4E7A FF FF FF FF 
2121   4E7E FF FF FF FF 
2121   4E82 FF FF FF FF 
2121   4E86 FF FF FF FF 
2121   4E8A FF FF FF FF 
2121   4E8E FF FF FF FF 
2121   4E92 FF FF FF FF 
2121   4E96 FF FF FF FF 
2121   4E9A FF FF FF FF 
2121   4E9E FF FF FF FF 
2121   4EA2 FF FF FF FF 
2121   4EA6 FF FF FF FF 
2121   4EAA FF FF FF FF 
2121   4EAE FF FF FF FF 
2121   4EB2 FF FF FF FF 
2121   4EB6 FF FF FF FF 
2121   4EBA FF FF FF FF 
2121   4EBE FF FF FF FF 
2121   4EC2 FF FF FF FF 
2121   4EC6 FF FF FF FF 
2121   4ECA FF FF FF FF 
2121   4ECE FF FF FF FF 
2121   4ED2 FF FF FF FF 
2121   4ED6 FF FF FF FF 
2121   4EDA FF FF FF FF 
2121   4EDE FF FF FF FF 
2121   4EE2 FF FF FF FF 
2121   4EE6 FF FF FF FF 
2121   4EEA FF FF FF FF 
2121   4EEE FF FF FF FF 
2121   4EF2 FF FF FF FF 
2121   4EF6 FF FF FF FF 
2121   4EFA FF FF FF FF 
2121   4EFE FF FF FF FF 
2121   4F02 FF FF FF FF 
2121   4F06 FF FF FF FF 
2121   4F0A FF FF FF FF 
2121   4F0E FF FF FF FF 
2121   4F12 FF FF FF FF 
2121   4F16 FF FF FF FF 
2121   4F1A FF FF FF FF 
2121   4F1E FF FF FF FF 
2121   4F22 FF FF FF FF 
2121   4F26 FF FF FF FF 
2121   4F2A FF FF FF FF 
2121   4F2E FF FF FF FF 
2121   4F32 FF FF FF FF 
2121   4F36 FF FF FF FF 
2121   4F3A FF FF FF FF 
2121   4F3E FF FF FF FF 
2121   4F42 FF FF FF FF 
2121   4F46 FF FF FF FF 
2121   4F4A FF FF FF FF 
2121   4F4E FF FF FF FF 
2121   4F52 FF FF FF FF 
2121   4F56 FF FF FF FF 
2121   4F5A FF FF FF FF 
2121   4F5E FF FF FF FF 
2121   4F62 FF FF FF FF 
2121   4F66 FF FF FF FF 
2121   4F6A FF FF FF FF 
2121   4F6E FF FF FF FF 
2121   4F72 FF FF FF FF 
2121   4F76 FF FF FF FF 
2121   4F7A FF FF FF FF 
2121   4F7E FF FF FF FF 
2121   4F82 FF FF FF FF 
2121   4F86 FF FF FF FF 
2121   4F8A FF FF FF FF 
2121   4F8E FF FF FF FF 
2121   4F92 FF FF FF FF 
2121   4F96 FF FF FF FF 
2121   4F9A FF FF FF FF 
2121   4F9E FF FF FF FF 
2121   4FA2 FF FF FF FF 
2121   4FA6 FF FF FF FF 
2121   4FAA FF FF FF FF 
2121   4FAE FF FF FF FF 
2121   4FB2 FF FF FF FF 
2121   4FB6 FF FF FF FF 
2121   4FBA FF FF FF FF 
2121   4FBE FF FF FF FF 
2121   4FC2 FF FF FF FF 
2121   4FC6 FF FF FF FF 
2121   4FCA FF FF FF FF 
2121   4FCE FF FF FF FF 
2121   4FD2 FF FF FF FF 
2121   4FD6 FF FF FF FF 
2121   4FDA FF FF FF FF 
2121   4FDE FF FF FF FF 
2121   4FE2 FF FF FF FF 
2121   4FE6 FF FF FF FF 
2121   4FEA FF FF FF FF 
2121   4FEE FF FF FF FF 
2121   4FF2 FF FF FF FF 
2121   4FF6 FF FF FF FF 
2121   4FFA FF FF FF FF 
2121   4FFE FF FF FF FF 
2121   5002 FF FF FF FF 
2121   5006 FF FF FF FF 
2121   500A FF FF FF FF 
2121   500E FF FF FF FF 
2121   5012 FF FF FF FF 
2121   5016 FF FF FF FF 
2121   501A FF FF FF FF 
2121   501E FF FF FF FF 
2121   5022 FF FF FF FF 
2121   5026 FF FF FF FF 
2121   502A FF FF FF FF 
2121   502E FF FF FF FF 
2121   5032 FF FF FF FF 
2121   5036 FF FF FF FF 
2121   503A FF FF FF FF 
2121   503E FF FF FF FF 
2121   5042 FF FF FF FF 
2121   5046 FF FF FF FF 
2121   504A FF FF FF FF 
2121   504E FF FF FF FF 
2121   5052 FF FF FF FF 
2121   5056 FF FF FF FF 
2121   505A FF FF FF FF 
2121   505E FF FF FF FF 
2121   5062 FF FF FF FF 
2121   5066 FF FF FF FF 
2121   506A FF FF FF FF 
2121   506E FF FF FF FF 
2121   5072 FF FF FF FF 
2121   5076 FF FF FF FF 
2121   507A FF FF FF FF 
2121   507E FF FF FF FF 
2121   5082 FF FF FF FF 
2121   5086 FF FF FF FF 
2121   508A FF FF FF FF 
2121   508E FF FF FF FF 
2121   5092 FF FF FF FF 
2121   5096 FF FF FF FF 
2121   509A FF FF FF FF 
2121   509E FF FF FF FF 
2121   50A2 FF FF FF FF 
2121   50A6 FF FF FF FF 
2121   50AA FF FF FF FF 
2121   50AE FF FF FF FF 
2121   50B2 FF FF FF FF 
2121   50B6 FF FF FF FF 
2121   50BA FF FF FF FF 
2121   50BE FF FF FF FF 
2121   50C2 FF FF FF FF 
2121   50C6 FF FF FF FF 
2121   50CA FF FF FF FF 
2121   50CE FF FF FF FF 
2121   50D2 FF FF FF FF 
2121   50D6 FF FF FF FF 
2121   50DA FF FF FF FF 
2121   50DE FF FF FF FF 
2121   50E2 FF FF FF FF 
2121   50E6 FF FF FF FF 
2121   50EA FF FF FF FF 
2121   50EE FF FF FF FF 
2121   50F2 FF FF FF FF 
2121   50F6 FF FF FF FF 
2121   50FA FF FF FF FF 
2121   50FE FF FF FF FF 
2121   5102 FF FF FF FF 
2121   5106 FF FF FF FF 
2121   510A FF FF FF FF 
2121   510E FF FF FF FF 
2121   5112 FF FF FF FF 
2121   5116 FF FF FF FF 
2121   511A FF FF FF FF 
2121   511E FF FF FF FF 
2121   5122 FF FF FF FF 
2121   5126 FF FF FF FF 
2121   512A FF FF FF FF 
2121   512E FF FF FF FF 
2121   5132 FF FF FF FF 
2121   5136 FF FF FF FF 
2121   513A FF FF FF FF 
2121   513E FF FF FF FF 
2121   5142 FF FF FF FF 
2121   5146 FF FF FF FF 
2121   514A FF FF FF FF 
2121   514E FF FF FF FF 
2121   5152 FF FF FF FF 
2121   5156 FF FF FF FF 
2121   515A FF FF FF FF 
2121   515E FF FF FF FF 
2121   5162 FF FF FF FF 
2121   5166 FF FF FF FF 
2121   516A FF FF FF FF 
2121   516E FF FF FF FF 
2121   5172 FF FF FF FF 
2121   5176 FF FF FF FF 
2121   517A FF FF FF FF 
2121   517E FF FF FF FF 
2121   5182 FF FF FF FF 
2121   5186 FF FF FF FF 
2121   518A FF FF FF FF 
2121   518E FF FF FF FF 
2121   5192 FF FF FF FF 
2121   5196 FF FF FF FF 
2121   519A FF FF FF FF 
2121   519E FF FF FF FF 
2121   51A2 FF FF FF FF 
2121   51A6 FF FF FF FF 
2121   51AA FF FF FF FF 
2121   51AE FF FF FF FF 
2121   51B2 FF FF FF FF 
2121   51B6 FF FF FF FF 
2121   51BA FF FF FF FF 
2121   51BE FF FF FF FF 
2121   51C2 FF FF FF FF 
2121   51C6 FF FF FF FF 
2121   51CA FF FF FF FF 
2121   51CE FF FF FF FF 
2121   51D2 FF FF FF FF 
2121   51D6 FF FF FF FF 
2121   51DA FF FF FF FF 
2121   51DE FF FF FF FF 
2121   51E2 FF FF FF FF 
2121   51E6 FF FF FF FF 
2121   51EA FF FF FF FF 
2121   51EE FF FF FF FF 
2121   51F2 FF FF FF FF 
2121   51F6 FF FF FF FF 
2121   51FA FF FF FF FF 
2121   51FE FF FF FF FF 
2121   5202 FF FF FF FF 
2121   5206 FF FF FF FF 
2121   520A FF FF FF FF 
2121   520E FF FF FF FF 
2121   5212 FF FF FF FF 
2121   5216 FF FF FF FF 
2121   521A FF FF FF FF 
2121   521E FF FF FF FF 
2121   5222 FF FF FF FF 
2121   5226 FF FF FF FF 
2121   522A FF FF FF FF 
2121   522E FF FF FF FF 
2121   5232 FF FF FF FF 
2121   5236 FF FF FF FF 
2121   523A FF FF FF FF 
2121   523E FF FF FF FF 
2121   5242 FF FF FF FF 
2121   5246 FF FF FF FF 
2121   524A FF FF FF FF 
2121   524E FF FF FF FF 
2121   5252 FF FF FF FF 
2121   5256 FF FF FF FF 
2121   525A FF FF FF FF 
2121   525E FF FF FF FF 
2121   5262 FF FF FF FF 
2121   5266 FF FF FF FF 
2121   526A FF FF FF FF 
2121   526E FF FF FF FF 
2121   5272 FF FF FF FF 
2121   5276 FF FF FF FF 
2121   527A FF FF FF FF 
2121   527E FF FF FF FF 
2121   5282 FF FF FF FF 
2121   5286 FF FF FF FF 
2121   528A FF FF FF FF 
2121   528E FF FF FF FF 
2121   5292 FF FF FF FF 
2121   5296 FF FF FF FF 
2121   529A FF FF FF FF 
2121   529E FF FF FF FF 
2121   52A2 FF FF FF FF 
2121   52A6 FF FF FF FF 
2121   52AA FF FF FF FF 
2121   52AE FF FF FF FF 
2121   52B2 FF FF FF FF 
2121   52B6 FF FF FF FF 
2121   52BA FF FF FF FF 
2121   52BE FF FF FF FF 
2121   52C2 FF FF FF FF 
2121   52C6 FF FF FF FF 
2121   52CA FF FF FF FF 
2121   52CE FF FF FF FF 
2121   52D2 FF FF FF FF 
2121   52D6 FF FF FF FF 
2121   52DA FF FF FF FF 
2121   52DE FF FF FF FF 
2121   52E2 FF FF FF FF 
2121   52E6 FF FF FF FF 
2121   52EA FF FF FF FF 
2121   52EE FF FF FF FF 
2121   52F2 FF FF FF FF 
2121   52F6 FF FF FF FF 
2121   52FA FF FF FF FF 
2121   52FE FF FF FF FF 
2121   5302 FF FF FF FF 
2121   5306 FF FF FF FF 
2121   530A FF FF FF FF 
2121   530E FF FF FF FF 
2121   5312 FF FF FF FF 
2121   5316 FF FF FF FF 
2121   531A FF FF FF FF 
2121   531E FF FF FF FF 
2121   5322 FF FF FF FF 
2121   5326 FF FF FF FF 
2121   532A FF FF FF FF 
2121   532E FF FF FF FF 
2121   5332 FF FF FF FF 
2121   5336 FF FF FF FF 
2121   533A FF FF FF FF 
2121   533E FF FF FF FF 
2121   5342 FF FF FF FF 
2121   5346 FF FF FF FF 
2121   534A FF FF FF FF 
2121   534E FF FF FF FF 
2121   5352 FF FF FF FF 
2121   5356 FF FF FF FF 
2121   535A FF FF FF FF 
2121   535E FF FF FF FF 
2121   5362 FF FF FF FF 
2121   5366 FF FF FF FF 
2121   536A FF FF FF FF 
2121   536E FF FF FF FF 
2121   5372 FF FF FF FF 
2121   5376 FF FF FF FF 
2121   537A FF FF FF FF 
2121   537E FF FF FF FF 
2121   5382 FF FF FF FF 
2121   5386 FF FF FF FF 
2121   538A FF FF FF FF 
2121   538E FF FF FF FF 
2121   5392 FF FF FF FF 
2121   5396 FF FF FF FF 
2121   539A FF FF FF FF 
2121   539E FF FF FF FF 
2121   53A2 FF FF FF FF 
2121   53A6 FF FF FF FF 
2121   53AA FF FF FF FF 
2121   53AE FF FF FF FF 
2121   53B2 FF FF FF FF 
2121   53B6 FF FF FF FF 
2121   53BA FF FF FF FF 
2121   53BE FF FF FF FF 
2121   53C2 FF FF FF FF 
2121   53C6 FF FF FF FF 
2121   53CA FF FF FF FF 
2121   53CE FF FF FF FF 
2121   53D2 FF FF FF FF 
2121   53D6 FF FF FF FF 
2121   53DA FF FF FF FF 
2121   53DE FF FF FF FF 
2121   53E2 FF FF FF FF 
2121   53E6 FF FF FF FF 
2121   53EA FF FF FF FF 
2121   53EE FF FF FF FF 
2121   53F2 FF FF FF FF 
2121   53F6 FF FF FF FF 
2121   53FA FF FF FF FF 
2121   53FE FF FF FF FF 
2121   5402 FF FF FF FF 
2121   5406 FF FF FF FF 
2121   540A FF FF FF FF 
2121   540E FF FF FF FF 
2121   5412 FF FF FF FF 
2121   5416 FF FF FF FF 
2121   541A FF FF FF FF 
2121   541E FF FF FF FF 
2121   5422 FF FF FF FF 
2121   5426 FF FF FF FF 
2121   542A FF FF FF FF 
2121   542E FF FF FF FF 
2121   5432 FF FF FF FF 
2121   5436 FF FF FF FF 
2121   543A FF FF FF FF 
2121   543E FF FF FF FF 
2121   5442 FF FF FF FF 
2121   5446 FF FF FF FF 
2121   544A FF FF FF FF 
2121   544E FF FF FF FF 
2121   5452 FF FF FF FF 
2121   5456 FF FF FF FF 
2121   545A FF FF FF FF 
2121   545E FF FF FF FF 
2121   5462 FF FF FF FF 
2121   5466 FF FF FF FF 
2121   546A FF FF FF FF 
2121   546E FF FF FF FF 
2121   5472 FF FF FF FF 
2121   5476 FF FF FF FF 
2121   547A FF FF FF FF 
2121   547E FF FF FF FF 
2121   5482 FF FF FF FF 
2121   5486 FF FF FF FF 
2121   548A FF FF FF FF 
2121   548E FF FF FF FF 
2121   5492 FF FF FF FF 
2121   5496 FF FF FF FF 
2121   549A FF FF FF FF 
2121   549E FF FF FF FF 
2121   54A2 FF FF FF FF 
2121   54A6 FF FF FF FF 
2121   54AA FF FF FF FF 
2121   54AE FF FF FF FF 
2121   54B2 FF FF FF FF 
2121   54B6 FF FF FF FF 
2121   54BA FF FF FF FF 
2121   54BE FF FF FF FF 
2121   54C2 FF FF FF FF 
2121   54C6 FF FF FF FF 
2121   54CA FF FF FF FF 
2121   54CE FF FF FF FF 
2121   54D2 FF FF FF FF 
2121   54D6 FF FF FF FF 
2121   54DA FF FF FF FF 
2121   54DE FF FF FF FF 
2121   54E2 FF FF FF FF 
2121   54E6 FF FF FF FF 
2121   54EA FF FF FF FF 
2121   54EE FF FF FF FF 
2121   54F2 FF FF FF FF 
2121   54F6 FF FF FF FF 
2121   54FA FF FF FF FF 
2121   54FE FF FF FF FF 
2121   5502 FF FF FF FF 
2121   5506 FF FF FF FF 
2121   550A FF FF FF FF 
2121   550E FF FF FF FF 
2121   5512 FF FF FF FF 
2121   5516 FF FF FF FF 
2121   551A FF FF FF FF 
2121   551E FF FF FF FF 
2121   5522 FF FF FF FF 
2121   5526 FF FF FF FF 
2121   552A FF FF FF FF 
2121   552E FF FF FF FF 
2121   5532 FF FF FF FF 
2121   5536 FF FF FF FF 
2121   553A FF FF FF FF 
2121   553E FF FF FF FF 
2121   5542 FF FF FF FF 
2121   5546 FF FF FF FF 
2121   554A FF FF FF FF 
2121   554E FF FF FF FF 
2121   5552 FF FF FF FF 
2121   5556 FF FF FF FF 
2121   555A FF FF FF FF 
2121   555E FF FF FF FF 
2121   5562 FF FF FF FF 
2121   5566 FF FF FF FF 
2121   556A FF FF FF FF 
2121   556E FF FF FF FF 
2121   5572 FF FF FF FF 
2121   5576 FF FF FF FF 
2121   557A FF FF FF FF 
2121   557E FF FF FF FF 
2121   5582 FF FF FF FF 
2121   5586 FF FF FF FF 
2121   558A FF FF FF FF 
2121   558E FF FF FF FF 
2121   5592 FF FF FF FF 
2121   5596 FF FF FF FF 
2121   559A FF FF FF FF 
2121   559E FF FF FF FF 
2121   55A2 FF FF FF FF 
2121   55A6 FF FF FF FF 
2121   55AA FF FF FF FF 
2121   55AE FF FF FF FF 
2121   55B2 FF FF FF FF 
2121   55B6 FF FF FF FF 
2121   55BA FF FF FF FF 
2121   55BE FF FF FF FF 
2121   55C2 FF FF FF FF 
2121   55C6 FF FF FF FF 
2121   55CA FF FF FF FF 
2121   55CE FF FF FF FF 
2121   55D2 FF FF FF FF 
2121   55D6 FF FF FF FF 
2121   55DA FF FF FF FF 
2121   55DE FF FF FF FF 
2121   55E2 FF FF FF FF 
2121   55E6 FF FF FF FF 
2121   55EA FF FF FF FF 
2121   55EE FF FF FF FF 
2121   55F2 FF FF FF FF 
2121   55F6 FF FF FF FF 
2121   55FA FF FF FF FF 
2121   55FE FF FF FF FF 
2121   5602 FF FF FF FF 
2121   5606 FF FF FF FF 
2121   560A FF FF FF FF 
2121   560E FF FF FF FF 
2121   5612 FF FF FF FF 
2121   5616 FF FF FF FF 
2121   561A FF FF FF FF 
2121   561E FF FF FF FF 
2121   5622 FF FF FF FF 
2121   5626 FF FF FF FF 
2121   562A FF FF FF FF 
2121   562E FF FF FF FF 
2121   5632 FF FF FF FF 
2121   5636 FF FF FF FF 
2121   563A FF FF FF FF 
2121   563E FF FF FF FF 
2121   5642 FF FF FF FF 
2121   5646 FF FF FF FF 
2121   564A FF FF FF FF 
2121   564E FF FF FF FF 
2121   5652 FF FF FF FF 
2121   5656 FF FF FF FF 
2121   565A FF FF FF FF 
2121   565E FF FF FF FF 
2121   5662 FF FF FF FF 
2121   5666 FF FF FF FF 
2121   566A FF FF FF FF 
2121   566E FF FF FF FF 
2121   5672 FF FF FF FF 
2121   5676 FF FF FF FF 
2121   567A FF FF FF FF 
2121   567E FF FF FF FF 
2121   5682 FF FF FF FF 
2121   5686 FF FF FF FF 
2121   568A FF FF FF FF 
2121   568E FF FF FF FF 
2121   5692 FF FF FF FF 
2121   5696 FF FF FF FF 
2121   569A FF FF FF FF 
2121   569E FF FF FF FF 
2121   56A2 FF FF FF FF 
2121   56A6 FF FF FF FF 
2121   56AA FF FF FF FF 
2121   56AE FF FF FF FF 
2121   56B2 FF FF FF FF 
2121   56B6 FF FF FF FF 
2121   56BA FF FF FF FF 
2121   56BE FF FF FF FF 
2121   56C2 FF FF FF FF 
2121   56C6 FF FF FF FF 
2121   56CA FF FF FF FF 
2121   56CE FF FF FF FF 
2121   56D2 FF FF FF FF 
2121   56D6 FF FF FF FF 
2121   56DA FF FF FF FF 
2121   56DE FF FF FF FF 
2121   56E2 FF FF FF FF 
2121   56E6 FF FF FF FF 
2121   56EA FF FF FF FF 
2121   56EE FF FF FF FF 
2121   56F2 FF FF FF FF 
2121   56F6 FF FF FF FF 
2121   56FA FF FF FF FF 
2121   56FE FF FF FF FF 
2121   5702 FF FF FF FF 
2121   5706 FF FF FF FF 
2121   570A FF FF FF FF 
2121   570E FF FF FF FF 
2121   5712 FF FF FF FF 
2121   5716 FF FF FF FF 
2121   571A FF FF FF FF 
2121   571E FF FF FF FF 
2121   5722 FF FF FF FF 
2121   5726 FF FF FF FF 
2121   572A FF FF FF FF 
2121   572E FF FF FF FF 
2121   5732 FF FF FF FF 
2121   5736 FF FF FF FF 
2121   573A FF FF FF FF 
2121   573E FF FF FF FF 
2121   5742 FF FF FF FF 
2121   5746 FF FF FF FF 
2121   574A FF FF FF FF 
2121   574E FF FF FF FF 
2121   5752 FF FF FF FF 
2121   5756 FF FF FF FF 
2121   575A FF FF FF FF 
2121   575E FF FF FF FF 
2121   5762 FF FF FF FF 
2121   5766 FF FF FF FF 
2121   576A FF FF FF FF 
2121   576E FF FF FF FF 
2121   5772 FF FF FF FF 
2121   5776 FF FF FF FF 
2121   577A FF FF FF FF 
2121   577E FF FF FF FF 
2121   5782 FF FF FF FF 
2121   5786 FF FF FF FF 
2121   578A FF FF FF FF 
2121   578E FF FF FF FF 
2121   5792 FF FF FF FF 
2121   5796 FF FF FF FF 
2121   579A FF FF FF FF 
2121   579E FF FF FF FF 
2121   57A2 FF FF FF FF 
2121   57A6 FF FF FF FF 
2121   57AA FF FF FF FF 
2121   57AE FF FF FF FF 
2121   57B2 FF FF FF FF 
2121   57B6 FF FF FF FF 
2121   57BA FF FF FF FF 
2121   57BE FF FF FF FF 
2121   57C2 FF FF FF FF 
2121   57C6 FF FF FF FF 
2121   57CA FF FF FF FF 
2121   57CE FF FF FF FF 
2121   57D2 FF FF FF FF 
2121   57D6 FF FF FF FF 
2121   57DA FF FF FF FF 
2121   57DE FF FF FF FF 
2121   57E2 FF FF FF FF 
2121   57E6 FF FF FF FF 
2121   57EA FF FF FF FF 
2121   57EE FF FF FF FF 
2121   57F2 FF FF FF FF 
2121   57F6 FF FF FF FF 
2121   57FA FF FF FF FF 
2121   57FE FF FF FF FF 
2121   5802 FF FF FF FF 
2121   5806 FF FF FF FF 
2121   580A FF FF FF FF 
2121   580E FF FF FF FF 
2121   5812 FF FF FF FF 
2121   5816 FF FF FF FF 
2121   581A FF FF FF FF 
2121   581E FF FF FF FF 
2121   5822 FF FF FF FF 
2121   5826 FF FF FF FF 
2121   582A FF FF FF FF 
2121   582E FF FF FF FF 
2121   5832 FF FF FF FF 
2121   5836 FF FF FF FF 
2121   583A FF FF FF FF 
2121   583E FF FF FF FF 
2121   5842 FF FF FF FF 
2121   5846 FF FF FF FF 
2121   584A FF FF FF FF 
2121   584E FF FF FF FF 
2121   5852 FF FF FF FF 
2121   5856 FF FF FF FF 
2121   585A FF FF FF FF 
2121   585E FF FF FF FF 
2121   5862 FF FF FF FF 
2121   5866 FF FF FF FF 
2121   586A FF FF FF FF 
2121   586E FF FF FF FF 
2121   5872 FF FF FF FF 
2121   5876 FF FF FF FF 
2121   587A FF FF FF FF 
2121   587E FF FF FF FF 
2121   5882 FF FF FF FF 
2121   5886 FF FF FF FF 
2121   588A FF FF FF FF 
2121   588E FF FF FF FF 
2121   5892 FF FF FF FF 
2121   5896 FF FF FF FF 
2121   589A FF FF FF FF 
2121   589E FF FF FF FF 
2121   58A2 FF FF FF FF 
2121   58A6 FF FF FF FF 
2121   58AA FF FF FF FF 
2121   58AE FF FF FF FF 
2121   58B2 FF FF FF FF 
2121   58B6 FF FF FF FF 
2121   58BA FF FF FF FF 
2121   58BE FF FF FF FF 
2121   58C2 FF FF FF FF 
2121   58C6 FF FF FF FF 
2121   58CA FF FF FF FF 
2121   58CE FF FF FF FF 
2121   58D2 FF FF FF FF 
2121   58D6 FF FF FF FF 
2121   58DA FF FF FF FF 
2121   58DE FF FF FF FF 
2121   58E2 FF FF FF FF 
2121   58E6 FF FF FF FF 
2121   58EA FF FF FF FF 
2121   58EE FF FF FF FF 
2121   58F2 FF FF FF FF 
2121   58F6 FF FF FF FF 
2121   58FA FF FF FF FF 
2121   58FE FF FF FF FF 
2121   5902 FF FF FF FF 
2121   5906 FF FF FF FF 
2121   590A FF FF FF FF 
2121   590E FF FF FF FF 
2121   5912 FF FF FF FF 
2121   5916 FF FF FF FF 
2121   591A FF FF FF FF 
2121   591E FF FF FF FF 
2121   5922 FF FF FF FF 
2121   5926 FF FF FF FF 
2121   592A FF FF FF FF 
2121   592E FF FF FF FF 
2121   5932 FF FF FF FF 
2121   5936 FF FF FF FF 
2121   593A FF FF FF FF 
2121   593E FF FF FF FF 
2121   5942 FF FF FF FF 
2121   5946 FF FF FF FF 
2121   594A FF FF FF FF 
2121   594E FF FF FF FF 
2121   5952 FF FF FF FF 
2121   5956 FF FF FF FF 
2121   595A FF FF FF FF 
2121   595E FF FF FF FF 
2121   5962 FF FF FF FF 
2121   5966 FF FF FF FF 
2121   596A FF FF FF FF 
2121   596E FF FF FF FF 
2121   5972 FF FF FF FF 
2121   5976 FF FF FF FF 
2121   597A FF FF FF FF 
2121   597E FF FF FF FF 
2121   5982 FF FF FF FF 
2121   5986 FF FF FF FF 
2121   598A FF FF FF FF 
2121   598E FF FF FF FF 
2121   5992 FF FF FF FF 
2121   5996 FF FF FF FF 
2121   599A FF FF FF FF 
2121   599E FF FF FF FF 
2121   59A2 FF FF FF FF 
2121   59A6 FF FF FF FF 
2121   59AA FF FF FF FF 
2121   59AE FF FF FF FF 
2121   59B2 FF FF FF FF 
2121   59B6 FF FF FF FF 
2121   59BA FF FF FF FF 
2121   59BE FF FF FF FF 
2121   59C2 FF FF FF FF 
2121   59C6 FF FF FF FF 
2121   59CA FF FF FF FF 
2121   59CE FF FF FF FF 
2121   59D2 FF FF FF FF 
2121   59D6 FF FF FF FF 
2121   59DA FF FF FF FF 
2121   59DE FF FF FF FF 
2121   59E2 FF FF FF FF 
2121   59E6 FF FF FF FF 
2121   59EA FF FF FF FF 
2121   59EE FF FF FF FF 
2121   59F2 FF FF FF FF 
2121   59F6 FF FF FF FF 
2121   59FA FF FF FF FF 
2121   59FE FF FF FF FF 
2121   5A02 FF FF FF FF 
2121   5A06 FF FF FF FF 
2121   5A0A FF FF FF FF 
2121   5A0E FF FF FF FF 
2121   5A12 FF FF FF FF 
2121   5A16 FF FF FF FF 
2121   5A1A FF FF FF FF 
2121   5A1E FF FF FF FF 
2121   5A22 FF FF FF FF 
2121   5A26 FF FF FF FF 
2121   5A2A FF FF FF FF 
2121   5A2E FF FF FF FF 
2121   5A32 FF FF FF FF 
2121   5A36 FF FF FF FF 
2121   5A3A FF FF FF FF 
2121   5A3E FF FF FF FF 
2121   5A42 FF FF FF FF 
2121   5A46 FF FF FF FF 
2121   5A4A FF FF FF FF 
2121   5A4E FF FF FF FF 
2121   5A52 FF FF FF FF 
2121   5A56 FF FF FF FF 
2121   5A5A FF FF FF FF 
2121   5A5E FF FF FF FF 
2121   5A62 FF FF FF FF 
2121   5A66 FF FF FF FF 
2121   5A6A FF FF FF FF 
2121   5A6E FF FF FF FF 
2121   5A72 FF FF FF FF 
2121   5A76 FF FF FF FF 
2121   5A7A FF FF FF FF 
2121   5A7E FF FF FF FF 
2121   5A82 FF FF FF FF 
2121   5A86 FF FF FF FF 
2121   5A8A FF FF FF FF 
2121   5A8E FF FF FF FF 
2121   5A92 FF FF FF FF 
2121   5A96 FF FF FF FF 
2121   5A9A FF FF FF FF 
2121   5A9E FF FF FF FF 
2121   5AA2 FF FF FF FF 
2121   5AA6 FF FF FF FF 
2121   5AAA FF FF FF FF 
2121   5AAE FF FF FF FF 
2121   5AB2 FF FF FF FF 
2121   5AB6 FF FF FF FF 
2121   5ABA FF FF FF FF 
2121   5ABE FF FF FF FF 
2121   5AC2 FF FF FF FF 
2121   5AC6 FF FF FF FF 
2121   5ACA FF FF FF FF 
2121   5ACE FF FF FF FF 
2121   5AD2 FF FF FF FF 
2121   5AD6 FF FF FF FF 
2121   5ADA FF FF FF FF 
2121   5ADE FF FF FF FF 
2121   5AE2 FF FF FF FF 
2121   5AE6 FF FF FF FF 
2121   5AEA FF FF FF FF 
2121   5AEE FF FF FF FF 
2121   5AF2 FF FF FF FF 
2121   5AF6 FF FF FF FF 
2121   5AFA FF FF FF FF 
2121   5AFE FF FF FF FF 
2121   5B02 FF FF FF FF 
2121   5B06 FF FF FF FF 
2121   5B0A FF FF FF FF 
2121   5B0E FF FF FF FF 
2121   5B12 FF FF FF FF 
2121   5B16 FF FF FF FF 
2121   5B1A FF FF FF FF 
2121   5B1E FF FF FF FF 
2121   5B22 FF FF FF FF 
2121   5B26 FF FF FF FF 
2121   5B2A FF FF FF FF 
2121   5B2E FF FF FF FF 
2121   5B32 FF FF FF FF 
2121   5B36 FF FF FF FF 
2121   5B3A FF FF FF FF 
2121   5B3E FF FF FF FF 
2121   5B42 FF FF FF FF 
2121   5B46 FF FF FF FF 
2121   5B4A FF FF FF FF 
2121   5B4E FF FF FF FF 
2121   5B52 FF FF FF FF 
2121   5B56 FF FF FF FF 
2121   5B5A FF FF FF FF 
2121   5B5E FF FF FF FF 
2121   5B62 FF FF FF FF 
2121   5B66 FF FF FF FF 
2121   5B6A FF FF FF FF 
2121   5B6E FF FF FF FF 
2121   5B72 FF FF FF FF 
2121   5B76 FF FF FF FF 
2121   5B7A FF FF FF FF 
2121   5B7E FF FF FF FF 
2121   5B82 FF FF FF FF 
2121   5B86 FF FF FF FF 
2121   5B8A FF FF FF FF 
2121   5B8E FF FF FF FF 
2121   5B92 FF FF FF FF 
2121   5B96 FF FF FF FF 
2121   5B9A FF FF FF FF 
2121   5B9E FF FF FF FF 
2121   5BA2 FF FF FF FF 
2121   5BA6 FF FF FF FF 
2121   5BAA FF FF FF FF 
2121   5BAE FF FF FF FF 
2121   5BB2 FF FF FF FF 
2121   5BB6 FF FF FF FF 
2121   5BBA FF FF FF FF 
2121   5BBE FF FF FF FF 
2121   5BC2 FF FF FF FF 
2121   5BC6 FF FF FF FF 
2121   5BCA FF FF FF FF 
2121   5BCE FF FF FF FF 
2121   5BD2 FF FF FF FF 
2121   5BD6 FF FF FF FF 
2121   5BDA FF FF FF FF 
2121   5BDE FF FF FF FF 
2121   5BE2 FF FF FF FF 
2121   5BE6 FF FF FF FF 
2121   5BEA FF FF FF FF 
2121   5BEE FF FF FF FF 
2121   5BF2 FF FF FF FF 
2121   5BF6 FF FF FF FF 
2121   5BFA FF FF FF FF 
2121   5BFE FF FF FF FF 
2121   5C02 FF FF FF FF 
2121   5C06 FF FF FF FF 
2121   5C0A FF FF FF FF 
2121   5C0E FF FF FF FF 
2121   5C12 FF FF FF FF 
2121   5C16 FF FF FF FF 
2121   5C1A FF FF FF FF 
2121   5C1E FF FF FF FF 
2121   5C22 FF FF FF FF 
2121   5C26 FF FF FF FF 
2121   5C2A FF FF FF FF 
2121   5C2E FF FF FF FF 
2121   5C32 FF FF FF FF 
2121   5C36 FF FF FF FF 
2121   5C3A FF FF FF FF 
2121   5C3E FF FF FF FF 
2121   5C42 FF FF FF FF 
2121   5C46 FF FF FF FF 
2121   5C4A FF FF FF FF 
2121   5C4E FF FF FF FF 
2121   5C52 FF FF FF FF 
2121   5C56 FF FF FF FF 
2121   5C5A FF FF FF FF 
2121   5C5E FF FF FF FF 
2121   5C62 FF FF FF FF 
2121   5C66 FF FF FF FF 
2121   5C6A FF FF FF FF 
2121   5C6E FF FF FF FF 
2121   5C72 FF FF FF FF 
2121   5C76 FF FF FF FF 
2121   5C7A FF FF FF FF 
2121   5C7E FF FF FF FF 
2121   5C82 FF FF FF FF 
2121   5C86 FF FF FF FF 
2121   5C8A FF FF FF FF 
2121   5C8E FF FF FF FF 
2121   5C92 FF FF FF FF 
2121   5C96 FF FF FF FF 
2121   5C9A FF FF FF FF 
2121   5C9E FF FF FF FF 
2121   5CA2 FF FF FF FF 
2121   5CA6 FF FF FF FF 
2121   5CAA FF FF FF FF 
2121   5CAE FF FF FF FF 
2121   5CB2 FF FF FF FF 
2121   5CB6 FF FF FF FF 
2121   5CBA FF FF FF FF 
2121   5CBE FF FF FF FF 
2121   5CC2 FF FF FF FF 
2121   5CC6 FF FF FF FF 
2121   5CCA FF FF FF FF 
2121   5CCE FF FF FF FF 
2121   5CD2 FF FF FF FF 
2121   5CD6 FF FF FF FF 
2121   5CDA FF FF FF FF 
2121   5CDE FF FF FF FF 
2121   5CE2 FF FF FF FF 
2121   5CE6 FF FF FF FF 
2121   5CEA FF FF FF FF 
2121   5CEE FF FF FF FF 
2121   5CF2 FF FF FF FF 
2121   5CF6 FF FF FF FF 
2121   5CFA FF FF FF FF 
2121   5CFE FF FF FF FF 
2121   5D02 FF FF FF FF 
2121   5D06 FF FF FF FF 
2121   5D0A FF FF FF FF 
2121   5D0E FF FF FF FF 
2121   5D12 FF FF FF FF 
2121   5D16 FF FF FF FF 
2121   5D1A FF FF FF FF 
2121   5D1E FF FF FF FF 
2121   5D22 FF FF FF FF 
2121   5D26 FF FF FF FF 
2121   5D2A FF FF FF FF 
2121   5D2E FF FF FF FF 
2121   5D32 FF FF FF FF 
2121   5D36 FF FF FF FF 
2121   5D3A FF FF FF FF 
2121   5D3E FF FF FF FF 
2121   5D42 FF FF FF FF 
2121   5D46 FF FF FF FF 
2121   5D4A FF FF FF FF 
2121   5D4E FF FF FF FF 
2121   5D52 FF FF FF FF 
2121   5D56 FF FF FF FF 
2121   5D5A FF FF FF FF 
2121   5D5E FF FF FF FF 
2121   5D62 FF FF FF FF 
2121   5D66 FF FF FF FF 
2121   5D6A FF FF FF FF 
2121   5D6E FF FF FF FF 
2121   5D72 FF FF FF FF 
2121   5D76 FF FF FF FF 
2121   5D7A FF FF FF FF 
2121   5D7E FF FF FF FF 
2121   5D82 FF FF FF FF 
2121   5D86 FF FF FF FF 
2121   5D8A FF FF FF FF 
2121   5D8E FF FF FF FF 
2121   5D92 FF FF FF FF 
2121   5D96 FF FF FF FF 
2121   5D9A FF FF FF FF 
2121   5D9E FF FF FF FF 
2121   5DA2 FF FF FF FF 
2121   5DA6 FF FF FF FF 
2121   5DAA FF FF FF FF 
2121   5DAE FF FF FF FF 
2121   5DB2 FF FF FF FF 
2121   5DB6 FF FF FF FF 
2121   5DBA FF FF FF FF 
2121   5DBE FF FF FF FF 
2121   5DC2 FF FF FF FF 
2121   5DC6 FF FF FF FF 
2121   5DCA FF FF FF FF 
2121   5DCE FF FF FF FF 
2121   5DD2 FF FF FF FF 
2121   5DD6 FF FF FF FF 
2121   5DDA FF FF FF FF 
2121   5DDE FF FF FF FF 
2121   5DE2 FF FF FF FF 
2121   5DE6 FF FF FF FF 
2121   5DEA FF FF FF FF 
2121   5DEE FF FF FF FF 
2121   5DF2 FF FF FF FF 
2121   5DF6 FF FF FF FF 
2121   5DFA FF FF FF FF 
2121   5DFE FF FF FF FF 
2121   5E02 FF FF FF FF 
2121   5E06 FF FF FF FF 
2121   5E0A FF FF FF FF 
2121   5E0E FF FF FF FF 
2121   5E12 FF FF FF FF 
2121   5E16 FF FF FF FF 
2121   5E1A FF FF FF FF 
2121   5E1E FF FF FF FF 
2121   5E22 FF FF FF FF 
2121   5E26 FF FF FF FF 
2121   5E2A FF FF FF FF 
2121   5E2E FF FF FF FF 
2121   5E32 FF FF FF FF 
2121   5E36 FF FF FF FF 
2121   5E3A FF FF FF FF 
2121   5E3E FF FF FF FF 
2121   5E42 FF FF FF FF 
2121   5E46 FF FF FF FF 
2121   5E4A FF FF FF FF 
2121   5E4E FF FF FF FF 
2121   5E52 FF FF FF FF 
2121   5E56 FF FF FF FF 
2121   5E5A FF FF FF FF 
2121   5E5E FF FF FF FF 
2121   5E62 FF FF FF FF 
2121   5E66 FF FF FF FF 
2121   5E6A FF FF FF FF 
2121   5E6E FF FF FF FF 
2121   5E72 FF FF FF FF 
2121   5E76 FF FF FF FF 
2121   5E7A FF FF FF FF 
2121   5E7E FF FF FF FF 
2121   5E82 FF FF FF FF 
2121   5E86 FF FF FF FF 
2121   5E8A FF FF FF FF 
2121   5E8E FF FF FF FF 
2121   5E92 FF FF FF FF 
2121   5E96 FF FF FF FF 
2121   5E9A FF FF FF FF 
2121   5E9E FF FF FF FF 
2121   5EA2 FF FF FF FF 
2121   5EA6 FF FF FF FF 
2121   5EAA FF FF FF FF 
2121   5EAE FF FF FF FF 
2121   5EB2 FF FF FF FF 
2121   5EB6 FF FF FF FF 
2121   5EBA FF FF FF FF 
2121   5EBE FF FF FF FF 
2121   5EC2 FF FF FF FF 
2121   5EC6 FF FF FF FF 
2121   5ECA FF FF FF FF 
2121   5ECE FF FF FF FF 
2121   5ED2 FF FF FF FF 
2121   5ED6 FF FF FF FF 
2121   5EDA FF FF FF FF 
2121   5EDE FF FF FF FF 
2121   5EE2 FF FF FF FF 
2121   5EE6 FF FF FF FF 
2121   5EEA FF FF FF FF 
2121   5EEE FF FF FF FF 
2121   5EF2 FF FF FF FF 
2121   5EF6 FF FF FF FF 
2121   5EFA FF FF FF FF 
2121   5EFE FF FF FF FF 
2121   5F02 FF FF FF FF 
2121   5F06 FF FF FF FF 
2121   5F0A FF FF FF FF 
2121   5F0E FF FF FF FF 
2121   5F12 FF FF FF FF 
2121   5F16 FF FF FF FF 
2121   5F1A FF FF FF FF 
2121   5F1E FF FF FF FF 
2121   5F22 FF FF FF FF 
2121   5F26 FF FF FF FF 
2121   5F2A FF FF FF FF 
2121   5F2E FF FF FF FF 
2121   5F32 FF FF FF FF 
2121   5F36 FF FF FF FF 
2121   5F3A FF FF FF FF 
2121   5F3E FF FF FF FF 
2121   5F42 FF FF FF FF 
2121   5F46 FF FF FF FF 
2121   5F4A FF FF FF FF 
2121   5F4E FF FF FF FF 
2121   5F52 FF FF FF FF 
2121   5F56 FF FF FF FF 
2121   5F5A FF FF FF FF 
2121   5F5E FF FF FF FF 
2121   5F62 FF FF FF FF 
2121   5F66 FF FF FF FF 
2121   5F6A FF FF FF FF 
2121   5F6E FF FF FF FF 
2121   5F72 FF FF FF FF 
2121   5F76 FF FF FF FF 
2121   5F7A FF FF FF FF 
2121   5F7E FF FF FF FF 
2121   5F82 FF FF FF FF 
2121   5F86 FF FF FF FF 
2121   5F8A FF FF FF FF 
2121   5F8E FF FF FF FF 
2121   5F92 FF FF FF FF 
2121   5F96 FF FF FF FF 
2121   5F9A FF FF FF FF 
2121   5F9E FF FF FF FF 
2121   5FA2 FF FF FF FF 
2121   5FA6 FF FF FF FF 
2121   5FAA FF FF FF FF 
2121   5FAE FF FF FF FF 
2121   5FB2 FF FF FF FF 
2121   5FB6 FF FF FF FF 
2121   5FBA FF FF FF FF 
2121   5FBE FF FF FF FF 
2121   5FC2 FF FF FF FF 
2121   5FC6 FF FF FF FF 
2121   5FCA FF FF FF FF 
2121   5FCE FF FF FF FF 
2121   5FD2 FF FF FF FF 
2121   5FD6 FF FF FF FF 
2121   5FDA FF FF FF FF 
2121   5FDE FF FF FF FF 
2121   5FE2 FF FF FF FF 
2121   5FE6 FF FF FF FF 
2121   5FEA FF FF FF FF 
2121   5FEE FF FF FF FF 
2121   5FF2 FF FF FF FF 
2121   5FF6 FF FF FF FF 
2121   5FFA FF FF FF FF 
2121   5FFE FF FF 
2122   6000             ;
2123   6000             ;===============================================================
2124   6000             ; WORKING DATA (DYNAMIC STORAGE)
2125   6000             ;===============================================================
2126   6000             ;
2127   6000             ; WORKING DATA STARTS AT $9000
2128   6000             ;
2129   9000             	.ORG	$9000
2130   9000             ;
2131   9000             S2I_MSG		.DS	1	; MESSAGE BYTE BUFFER
2132   9001             S2I_SENSE	.DS	1	; SENSE BYTE BUFFER
2133   9002             S2I_STAT	.DS	1	; CURRENT STATUS
2134   9003             S2I_LUN		.DS	1	; ACTIVE LUN
2135   9004             S2I_SID		.DS	1	; SCSI BUS DEVICE ID
2136   9005             S2I_SIDMASK	.DS	1	; SCSI DEVICE ID BIT MASK
2137   9006             S2I_CONFIG	.DS	1	; SCSI CONFIG BYTE
2138   9007             S2I_BLKSIZE	.DS	1	; BLOCK SIZE (1=256, 2=512)
2139   9008             S2I_DEVICE	.DS	1	; STORAGE DEVICE (HBIOS DEVICE ID)
2140   9009             S2I_DBGLVL	.DS	1	; DEBUG LEVEL (0=NONE, 1=ERROR, 2=INFO)
2141   900A             ;
2142   900A             S2I_CMDLEN	.DS	1	; LENGTH OF COMMAND DATA RECIEVED
2143   900B             S2I_CMDBUF	.DS	12	; UP TO 12 BYTES FOR RECEIVED COMMAND DATA
2144   9017             ;
2145   9017             S2I_RESPLEN	.DS	1	; LENGTH OF RESPONSE DATA
2146   9018             S2I_RESPBUF	.DS	256	; UP TO 256 BYTES FOR RESPONSE
2147   9118             ;
2148   9118             S2I_CBS_PRV	.DS	1
2149   9119             S2I_BSR_PRV	.DS	1
2150   911A             ;
2151   911A             S2I_DSKBUF	.DS	512	; PHYSICAL DISK BUFFER
2152   931A             ;
2153   931A             ;===============================================================
2154   931A             ;
2155   931A             	.END
tasm: Number of errors = 0
